
tmp:     file format elf64-x86-64

Contents of section .interp:
 400238 2f6c6962 36342f6c 642d6c69 6e75782d  /lib64/ld-linux-
 400248 7838362d 36342e73 6f2e3200           x86-64.so.2.    
Contents of section .note.ABI-tag:
 400254 04000000 10000000 01000000 474e5500  ............GNU.
 400264 00000000 03000000 02000000 00000000  ................
Contents of section .note.gnu.build-id:
 400274 04000000 14000000 03000000 474e5500  ............GNU.
 400284 705f46cc db327ab2 8f4713e7 c4ea77c1  p_F..2z..G....w.
 400294 7312942e                             s...            
Contents of section .gnu.hash:
 400298 02000000 0a000000 01000000 06000000  ................
 4002a8 00001000 00010000 0a000000 00000000  ................
 4002b8 2945d54c                             )E.L            
Contents of section .dynsym:
 4002c0 00000000 00000000 00000000 00000000  ................
 4002d0 00000000 00000000 77000000 12000000  ........w.......
 4002e0 00000000 00000000 00000000 00000000  ................
 4002f0 8b000000 12000000 00000000 00000000  ................
 400300 00000000 00000000 71000000 12000000  ........q.......
 400310 00000000 00000000 00000000 00000000  ................
 400320 7e000000 12000000 00000000 00000000  ~...............
 400330 00000000 00000000 9a000000 12000000  ................
 400340 00000000 00000000 00000000 00000000  ................
 400350 92000000 12000000 00000000 00000000  ................
 400360 00000000 00000000 37000000 12000000  ........7.......
 400370 00000000 00000000 00000000 00000000  ................
 400380 a0000000 12000000 00000000 00000000  ................
 400390 00000000 00000000 10000000 20000000  ............ ...
 4003a0 00000000 00000000 00000000 00000000  ................
 4003b0 1f000000 12000000 70064000 00000000  ........p.@.....
 4003c0 00000000 00000000                    ........        
Contents of section .dynstr:
 4003c8 006c6962 73746463 2b2b2e73 6f2e3600  .libstdc++.so.6.
 4003d8 5f5f676d 6f6e5f73 74617274 5f5f005f  __gmon_start__._
 4003e8 5a4e5374 38696f73 5f626173 6534496e  ZNSt8ios_base4In
 4003f8 69744431 4576005f 5a4e5374 38696f73  itD1Ev._ZNSt8ios
 400408 5f626173 6534496e 69744331 4576006c  _base4InitC1Ev.l
 400418 69626d2e 736f2e36 006c6962 6763635f  ibm.so.6.libgcc_
 400428 732e736f 2e31006c 6962632e 736f2e36  s.so.1.libc.so.6
 400438 0061626f 72740070 72696e74 66005f5f  .abort.printf.__
 400448 6378615f 61746578 6974006d 656d7365  cxa_atexit.memse
 400458 74006765 74636861 72007363 616e6600  t.getchar.scanf.
 400468 5f5f6c69 62635f73 74617274 5f6d6169  __libc_start_mai
 400478 6e00474c 49424358 585f332e 3400474c  n.GLIBCXX_3.4.GL
 400488 4942435f 322e322e 3500               IBC_2.2.5.      
Contents of section .gnu.version:
 400492 00000200 02000200 02000200 02000300  ................
 4004a2 02000000 0300                        ......          
Contents of section .gnu.version_r:
 4004a8 01000100 01000000 10000000 20000000  ............ ...
 4004b8 74299208 00000300 b2000000 00000000  t)..............
 4004c8 01000100 67000000 10000000 00000000  ....g...........
 4004d8 751a6909 00000200 be000000 00000000  u.i.............
Contents of section .rela.dyn:
 4004e8 f01f6000 00000000 06000000 08000000  ..`.............
 4004f8 00000000 00000000 f81f6000 00000000  ..........`.....
 400508 06000000 09000000 00000000 00000000  ................
Contents of section .rela.plt:
 400518 18206000 00000000 07000000 01000000  . `.............
 400528 00000000 00000000 20206000 00000000  ........  `.....
 400538 07000000 02000000 00000000 00000000  ................
 400548 28206000 00000000 07000000 03000000  ( `.............
 400558 00000000 00000000 30206000 00000000  ........0 `.....
 400568 07000000 04000000 00000000 00000000  ................
 400578 38206000 00000000 07000000 05000000  8 `.............
 400588 00000000 00000000 40206000 00000000  ........@ `.....
 400598 07000000 06000000 00000000 00000000  ................
 4005a8 48206000 00000000 07000000 07000000  H `.............
 4005b8 00000000 00000000 50206000 00000000  ........P `.....
 4005c8 07000000 0a000000 00000000 00000000  ................
Contents of section .init:
 4005d8 4883ec08 488b0515 1a200048 85c07402  H...H.... .H..t.
 4005e8 ffd04883 c408c3                      ..H....         
Contents of section .plt:
 4005f0 ff35121a 2000ff25 141a2000 0f1f4000  .5.. ..%.. ...@.
 400600 ff25121a 20006800 000000e9 e0ffffff  .%.. .h.........
 400610 ff250a1a 20006801 000000e9 d0ffffff  .%.. .h.........
 400620 ff25021a 20006802 000000e9 c0ffffff  .%.. .h.........
 400630 ff25fa19 20006803 000000e9 b0ffffff  .%.. .h.........
 400640 ff25f219 20006804 000000e9 a0ffffff  .%.. .h.........
 400650 ff25ea19 20006805 000000e9 90ffffff  .%.. .h.........
 400660 ff25e219 20006806 000000e9 80ffffff  .%.. .h.........
 400670 ff25da19 20006807 000000e9 70ffffff  .%.. .h.....p...
Contents of section .text:
 400680 31ed4989 d15e4889 e24883e4 f0505449  1.I..^H..H...PTI
 400690 c7c03012 400048c7 c1c01140 0048c7c7  ..0.@.H....@.H..
 4006a0 05094000 ff154619 2000f40f 1f440000  ..@...F. ....D..
 4006b0 55b86020 6000483d 60206000 4889e574  U.` `.H=` `.H..t
 4006c0 17b80000 00004885 c0740d5d bf602060  ......H..t.].` `
 4006d0 00ffe00f 1f440000 5dc3660f 1f440000  .....D..].f..D..
 4006e0 be602060 00554881 ee602060 004889e5  .` `.UH..` `.H..
 4006f0 48c1fe03 4889f048 c1e83f48 01c648d1  H...H..H..?H..H.
 400700 fe7415b8 00000000 4885c074 0b5dbf60  .t......H..t.].`
 400710 206000ff e00f1f00 5dc3660f 1f440000   `......].f..D..
 400720 803d3919 20000075 17554889 e5e87eff  .=9. ..u.UH...~.
 400730 ffffc605 27192000 015dc30f 1f440000  ....'. ..]...D..
 400740 f3c30f1f 4000662e 0f1f8400 00000000  ....@.f.........
 400750 554889e5 5deb8955 4889e548 83ec108b  UH..]..UH..H....
 400760 05231920 0083e801 8d503f85 c00f48c2  .#. .....P?...H.
 400770 c1f80689 05071920 00c7051d 05340001  ....... .....4..
 400780 000000c7 45fc0100 00008b05 f4182000  ....E......... .
 400790 3945fc7f 448b45fc 83e80148 988b0485  9E..D.E....H....
 4007a0 a00c7400 8d0c00ba 992fb844 89c8f7ea  ..t....../.D....
 4007b0 c1fa1c89 c8c1f81f 29c289d0 69c007ca  ........)...i...
 4007c0 9a3b29c1 89c88b55 fc4863d2 890495a0  .;)....U.Hc.....
 4007d0 0c740083 45fc01eb b1ba8002 0000be00  .t..E...........
 4007e0 000000bf a0e47300 e823feff ffc745f8  ......s..#....E.
 4007f0 00000000 8b058e18 20003945 f87d4d8b  ........ .9E.}M.
 400800 45f88d50 3f85c00f 48c2c1f8 0689c648  E..P?...H......H
 400810 63c6488b 3cc5a0e4 73008b45 f899c1ea  c.H.<...s..E....
 400820 1a01d083 e03f29d0 ba010000 0089c148  .....?)........H
 400830 d3e24889 d04809c7 4889fa48 63c64889  ..H..H..H..Hc.H.
 400840 14c5a0e4 73008345 f801eba8 c745f401  ....s..E.....E..
 400850 0000008b 052b1820 003945f4 0f8fa000  .....+. .9E.....
 400860 00008b45 f44863d0 4889d048 c1e00248  ...E.Hc.H..H...H
 400870 01d048c1 e0074805 a0206000 4889c7e8  ..H...H.. `.H...
 400880 56080000 c745f000 0000008b 05ef1720  V....E......... 
 400890 003945f0 7f638b45 f04863c8 8b45f448  .9E..c.E.Hc..E.H
 4008a0 63d04889 d048c1e0 024801d0 48c1e004  c.H..H...H..H...
 4008b0 4801c848 8b14c5a0 2060008b 45f04898  H..H.... `..E.H.
 4008c0 488b04c5 a0e47300 4889d148 31c18b45  H.....s.H..H1..E
 4008d0 f04863f0 8b45f448 63d04889 d048c1e0  .Hc..E.Hc.H..H..
 4008e0 024801d0 48c1e004 4801f048 890cc5a0  .H..H...H..H....
 4008f0 026a0083 45f001eb 928345f4 01e951ff  .j..E.....E...Q.
 400900 ffff90c9 c3554889 e54883ec 20b98c20  .....UH..H.. .. 
 400910 6000ba88 206000be 84206000 bf5c1240  `... `... `..\.@
 400920 00b80000 0000e815 fdffffe8 27feffff  ............'...
 400930 8b055617 20008d50 ff89154d 17200085  ..V. ..P...M. ..
 400940 c00f95c0 84c00f84 34070000 bf20f173  ........4.... .s
 400950 00e88407 0000c705 18133400 00000000  ..........4.....
 400960 8b051213 34008905 14133400 8b050e13  ....4.....4.....
 400970 34008905 fc123400 8b0dfa12 34008b05  4.....4.....4...
 400980 f0123400 83c00189 05e71234 008b05e1  ..4........4....
 400990 12340048 984889c2 48c1e202 4801c248  .4.H.H..H...H..H
 4009a0 89d048c1 e0074889 c24863c9 4889c848  ..H...H..Hc.H..H
 4009b0 c1e00248 01c848c1 e0094801 d04805a0  ...H..H...H..H..
 4009c0 f8730048 89c7e8bf 0700008b 05b31620  .s.H........... 
 4009d0 008945fc 837dfc00 0f84ca05 00008b05  ..E..}..........
 4009e0 90123400 89059212 34008b05 88123400  ..4.....4.....4.
 4009f0 83f00189 057f1234 00c70571 12340000  .......4...q.4..
 400a00 000000c7 45f80100 00008b05 6c123400  ....E.......l.4.
 400a10 3945f80f 8f860500 00c645f7 01c645f6  9E........E...E.
 400a20 01c645f5 01c645f4 01c745f0 00000000  ..E...E...E.....
 400a30 8b054a16 20003945 f00f8fe7 0300000f  ..J. .9E........
 400a40 b645f783 f00184c0 740f0fb6 45f683f0  .E......t...E...
 400a50 0184c00f 85cc0300 008b0519 12340083  .............4..
 400a60 f00189c2 8b45f048 63f04863 c28b55f8  .....E.Hc.Hc..U.
 400a70 4863ca48 89c248c1 e2024801 c24889d0  Hc.H..H...H..H..
 400a80 48c1e006 4889c248 89c848c1 e0024801  H...H..H..H...H.
 400a90 c848c1e0 044801d0 4801f048 8b14c5a0  .H...H..H..H....
 400aa0 f873008b 45f04898 488b04c5 a0e47300  .s..E.H.H.....s.
 400ab0 4839c275 49807df7 00741a8b 45f04898  H9.uI.}..t..E.H.
 400ac0 488b14c5 a0e47300 8b45f048 98488914  H.....s..E.H.H..
 400ad0 c520e773 00807df6 000f843c 0300008b  . .s..}....<....
 400ae0 45f04898 488b14c5 a0e47300 8b45f048  E.H.H.....s..E.H
 400af0 98488914 c5a0e973 00e91d03 0000807d  .H.....s.......}
 400b00 f700744b 8b45f048 98488b04 c520f173  ..tK.E.H.H... .s
 400b10 0048f7d0 4889c68b 45f04863 c88b45fc  .H..H...E.Hc..E.
 400b20 4863d048 89d048c1 e0024801 d048c1e0  Hc.H..H...H..H..
 400b30 044801c8 488b04c5 a0206000 4821c648  .H..H.... `.H!.H
 400b40 89f28b45 f0489848 8914c520 ec730080  ...E.H.H... .s..
 400b50 7df60074 488b45f0 4863c88b 45fc4863  }..tH.E.Hc..E.Hc
 400b60 d04889d0 48c1e002 4801d048 c1e00448  .H..H...H..H...H
 400b70 01c8488b 04c5a020 600048f7 d04889c2  ..H.... `.H..H..
 400b80 8b45f048 98488b04 c520f173 004821c2  .E.H.H... .s.H!.
 400b90 8b45f048 98488914 c5a0ee73 00807df7  .E.H.H.....s..}.
 400ba0 0074738b 45f04898 488b34c5 20ec7300  .ts.E.H.H.4. .s.
 400bb0 8b05c210 340083f0 0189c28b 45f04863  ....4.......E.Hc
 400bc0 f84863c2 8b55f848 63ca4889 c248c1e2  .Hc..U.Hc.H..H..
 400bd0 024801c2 4889d048 c1e00648 89c24889  .H..H..H...H..H.
 400be0 c848c1e0 024801c8 48c1e004 4801d048  .H...H..H...H..H
 400bf0 01f8488b 04c5a0f8 73004821 c64889f2  ..H.....s.H!.H..
 400c00 8b45f048 98488b04 c520ec73 004839c2  .E.H.H... .s.H9.
 400c10 7404c645 f700807d f6007473 8b45f048  t..E...}..ts.E.H
 400c20 98488b34 c5a0ee73 008b0549 10340083  .H.4...s...I.4..
 400c30 f00189c2 8b45f048 63f84863 c28b55f8  .....E.Hc.Hc..U.
 400c40 4863ca48 89c248c1 e2024801 c24889d0  Hc.H..H...H..H..
 400c50 48c1e006 4889c248 89c848c1 e0024801  H...H..H..H...H.
 400c60 c848c1e0 044801d0 4801f848 8b04c5a0  .H...H..H..H....
 400c70 f8730048 21c64889 f28b45f0 4898488b  .s.H!.H...E.H.H.
 400c80 04c5a0ee 73004839 c27404c6 45f60080  ....s.H9.t..E...
 400c90 7df7000f 84920000 008b05d9 0f340083  }............4..
 400ca0 f00189c2 8b45f048 63f04863 c28b55f8  .....E.Hc.Hc..U.
 400cb0 4863ca48 89c248c1 e2024801 c24889d0  Hc.H..H...H..H..
 400cc0 48c1e006 4889c248 89c848c1 e0024801  H...H..H..H...H.
 400cd0 c848c1e0 044801d0 4801f048 8b0cc5a0  .H...H..H..H....
 400ce0 f873008b 45f04863 f08b45fc 4863d048  .s..E.Hc..E.Hc.H
 400cf0 89d048c1 e0024801 d048c1e0 044801f0  ..H...H..H...H..
 400d00 488b14c5 a0206000 8b45f048 98488b04  H.... `..E.H.H..
 400d10 c520ec73 004831d0 4809c148 89ca8b45  . .s.H1.H..H...E
 400d20 f0489848 8914c520 e7730080 7df6000f  .H.H... .s..}...
 400d30 84920000 008b053d 0f340083 f00189c2  .......=.4......
 400d40 8b45f048 63f04863 c28b55f8 4863ca48  .E.Hc.Hc..U.Hc.H
 400d50 89c248c1 e2024801 c24889d0 48c1e006  ..H...H..H..H...
 400d60 4889c248 89c848c1 e0024801 c848c1e0  H..H..H...H..H..
 400d70 044801d0 4801f048 8b0cc5a0 f873008b  .H..H..H.....s..
 400d80 45f04863 f08b45fc 4863d048 89d048c1  E.Hc..E.Hc.H..H.
 400d90 e0024801 d048c1e0 044801f0 488b14c5  ..H..H...H..H...
 400da0 a0026a00 8b45f048 98488b04 c5a0ee73  ..j..E.H.H.....s
 400db0 004831d0 4809c148 89ca8b45 f0489848  .H1.H..H...E.H.H
 400dc0 8914c5a0 e9730080 7df70074 238b45f0  .....s..}..t#.E.
 400dd0 4898488b 14c520e7 73008b45 f0489848  H.H... .s..E.H.H
 400de0 8b04c5a0 e4730048 39c27404 c645f500  .....s.H9.t..E..
 400df0 807df600 74268b45 f0489848 8b14c5a0  .}..t&.E.H.H....
 400e00 e973008b 45f04898 488b04c5 a0e47300  .s..E.H.H.....s.
 400e10 4839c274 07c645f4 00eb0190 8345f001  H9.t..E......E..
 400e20 e90bfcff ff90807d f7000f84 a6000000  .......}........
 400e30 807df500 743f8b45 fc83e801 48988b14  .}..t?.E....H...
 400e40 85a00c74 008b0535 0e34008d 0c02ba99  ...t...5.4......
 400e50 2fb84489 c8f7eac1 fa1c89c8 c1f81f29  /.D............)
 400e60 c289d069 c007ca9a 3b29c189 c889050d  ...i....;)......
 400e70 0e3400eb 618b15fd 0d34008b 05f30d34  .4..a....4.....4
 400e80 0083c001 8905ea0d 34008b05 e40d3400  ........4.....4.
 400e90 48984863 ca4889c2 48c1e202 4801c248  H.Hc.H..H...H..H
 400ea0 89d048c1 e0074889 c24889c8 48c1e002  ..H...H..H..H...
 400eb0 4801c848 c1e00948 01d04805 a0f87300  H..H...H..H...s.
 400ec0 4889c2be 20e77300 b8500000 004889d7  H... .s..P...H..
 400ed0 4889c1f3 48a5807d f6000f84 a6000000  H...H..}........
 400ee0 807df400 743f8b45 fc83e801 48988b14  .}..t?.E....H...
 400ef0 85a00c74 008b0585 0d34008d 0c02ba99  ...t.....4......
 400f00 2fb84489 c8f7eac1 fa1c89c8 c1f81f29  /.D............)
 400f10 c289d069 c007ca9a 3b29c189 c889055d  ...i....;).....]
 400f20 0d3400eb 618b154d 0d34008b 05430d34  .4..a..M.4...C.4
 400f30 0083c001 89053a0d 34008b05 340d3400  ......:.4...4.4.
 400f40 48984863 ca4889c2 48c1e202 4801c248  H.Hc.H..H...H..H
 400f50 89d048c1 e0074889 c24889c8 48c1e002  ..H...H..H..H...
 400f60 4801c848 c1e00948 01d04805 a0f87300  H..H...H..H...s.
 400f70 4889c2be a0e97300 b8500000 004889d7  H.....s..P...H..
 400f80 4889c1f3 48a58b05 e80c3400 83f8027e  H...H.....4....~
 400f90 05e88af6 ffff8345 f801e96b faffff83  .......E...k....
 400fa0 6dfc01e9 2cfaffff c745ec01 0000008b  m...,....E......
 400fb0 05bf0c34 003945ec 0f8fa600 0000c645  ...4.9E........E
 400fc0 eb01c745 e4000000 008b05b1 10200039  ...E......... .9
 400fd0 45e47f75 8b059e0c 34008b55 e44863f2  E..u....4..U.Hc.
 400fe0 48988b55 ec4863ca 4889c248 c1e20248  H..U.Hc.H..H...H
 400ff0 01c24889 d048c1e0 064889c2 4889c848  ..H..H...H..H..H
 401000 c1e00248 01c848c1 e0044801 d04801f0  ...H..H...H..H..
 401010 488b14c5 a0f87300 8b45e448 98488b04  H.....s..E.H.H..
 401020 c5a0e473 004831c2 8b45e448 98488b04  ...s.H1..E.H.H..
 401030 c520f173 004821d0 4885c074 06c645eb  . .s.H!.H..t..E.
 401040 00eb0683 45e401eb 800fb655 eb8b052d  ....E......U...-
 401050 0c340001 d0890525 0c340083 45ec01e9  .4.....%.4..E...
 401060 4bffffff 8b05160c 340089c6 bf651240  K.......4....e.@
 401070 00b80000 0000e885 f5ffffe9 b0f8ffff  ................
 401080 b8000000 00c9c355 4889e548 83ec1089  .......UH..H....
 401090 7dfc8975 f8837dfc 01752781 7df8ffff  }..u..}..u'.}...
 4010a0 0000751e bf841c74 00e8b2f5 ffffba48  ..u....t.......H
 4010b0 124000be 841c7400 bf700640 00e86ef5  .@....t..p.@..n.
 4010c0 ffff90c9 c3554889 e5beffff 0000bf01  .....UH.........
 4010d0 000000e8 afffffff 5dc35548 89e54883  ........].UH..H.
 4010e0 ec204889 7de8488b 45e8ba80 020000be  . H.}.H.E.......
 4010f0 00000000 4889c7e8 14f5ffff e84ff5ff  ....H........O..
 401100 ff8845ff 0fbe45ff 83e83083 f809760a  ..E...E...0...v.
 401110 e83bf5ff ff8845ff ebeac745 f8000000  .;....E....E....
 401120 008b0561 0f200039 45f87d5a 8b45f88d  ...a. .9E.}Z.E..
 401130 503f85c0 0f48c2c1 f80689c6 488b45e8  P?...H......H.E.
 401140 4863d648 8b3cd00f be45ff83 e8304c63  Hc.H.<...E...0Lc
 401150 c08b45f8 99c1ea1a 01d083e0 3f29d089  ..E.........?)..
 401160 c149d3e0 4c89c048 89f94809 c1488b45  .I..L..H..H..H.E
 401170 e84863d6 48890cd0 8345f801 e8cff4ff  .Hc.H....E......
 401180 ff8845ff eb9b90c9 c3905548 89e54889  ..E.......UH..H.
 401190 7de8c745 fc000000 008b05e1 0e200039  }..E......... .9
 4011a0 45fc7f18 488b45e8 8b55fc48 63d248c7  E...H.E..U.Hc.H.
 4011b0 04d00000 00008345 fc01ebdd 905dc390  .......E.....]..
 4011c0 41574156 4989d741 5541544c 8d25060c  AWAVI..AUATL.%..
 4011d0 20005548 8d2d0e0c 20005341 89fd4989   .UH.-.. .SA..I.
 4011e0 f64c29e5 4883ec08 48c1fd03 e8e7f3ff  .L).H...H.......
 4011f0 ff4885ed 742031db 0f1f8400 00000000  .H..t 1.........
 401200 4c89fa4c 89f64489 ef41ff14 dc4883c3  L..L..D..A...H..
 401210 014839dd 75ea4883 c4085b5d 415c415d  .H9.u.H...[]A\A]
 401220 415e415f c390662e 0f1f8400 00000000  A^A_..f.........
 401230 f3c3                                 ..              
Contents of section .fini:
 401234 4883ec08 4883c408 c3                 H...H....       
Contents of section .rodata:
 401240 01000200 00000000 00000000 00000000  ................
 401250 00000000 f4030000 07ca9a3b 25642025  ...........;%d %
 401260 64202564 0025640a 00                 d %d.%d..       
Contents of section .eh_frame_hdr:
 40126c 011b033b 58000000 0a000000 84f3ffff  ...;X...........
 40127c a4000000 14f4ffff 74000000 ebf4ffff  ........t.......
 40128c 0c010000 99f6ffff 2c010000 1bfeffff  ........,.......
 40129c 4c010000 59feffff 6c010000 6efeffff  L...Y...l...n...
 4012ac cc000000 1effffff ec000000 54ffffff  ............T...
 4012bc 8c010000 c4ffffff d4010000           ............    
Contents of section .eh_frame:
 4012c8 14000000 00000000 017a5200 01781001  .........zR..x..
 4012d8 1b0c0708 90010710 14000000 1c000000  ................
 4012e8 98f3ffff 2b000000 00000000 00000000  ....+...........
 4012f8 14000000 00000000 017a5200 01781001  .........zR..x..
 401308 1b0c0708 90010000 24000000 1c000000  ........$.......
 401318 d8f2ffff 90000000 000e1046 0e184a0f  ...........F..J.
 401328 0b770880 003f1a3b 2a332422 00000000  .w...?.;*3$"....
 401338 1c000000 44000000 9afdffff af000000  ....D...........
 401348 00410e10 8602430d 0602aa0c 07080000  .A....C.........
 401358 1c000000 64000000 2afeffff 35000000  ....d...*...5...
 401368 00410e10 8602430d 06700c07 08000000  .A....C..p......
 401378 1c000000 84000000 d7f3ffff ae010000  ................
 401388 00410e10 8602430d 0603a901 0c070800  .A....C.........
 401398 1c000000 a4000000 65f5ffff 82070000  ........e.......
 4013a8 00410e10 8602430d 06037d07 0c070800  .A....C...}.....
 4013b8 1c000000 c4000000 c7fcffff 3e000000  ............>...
 4013c8 00410e10 8602430d 06790c07 08000000  .A....C..y......
 4013d8 1c000000 e4000000 e5fcffff 15000000  ................
 4013e8 00410e10 8602430d 06500c07 08000000  .A....C..P......
 4013f8 44000000 04010000 c0fdffff 65000000  D...........e...
 401408 00420e10 8f02420e 188e0345 0e208d04  .B....B....E. ..
 401418 420e288c 05480e30 8606480e 3883074d  B.(..H.0..H.8..M
 401428 0e40720e 38410e30 410e2842 0e20420e  .@r.8A.0A.(B. B.
 401438 18420e10 420e0800 10000000 4c010000  .B..B.......L...
 401448 e8fdffff 02000000 00000000 00000000  ................
Contents of section .init_array:
 601dd8 50074000 00000000 c5104000 00000000  P.@.......@.....
Contents of section .fini_array:
 601de8 20074000 00000000                     .@.....        
Contents of section .dynamic:
 601df0 01000000 00000000 01000000 00000000  ................
 601e00 01000000 00000000 4f000000 00000000  ........O.......
 601e10 01000000 00000000 59000000 00000000  ........Y.......
 601e20 01000000 00000000 67000000 00000000  ........g.......
 601e30 0c000000 00000000 d8054000 00000000  ..........@.....
 601e40 0d000000 00000000 34124000 00000000  ........4.@.....
 601e50 19000000 00000000 d81d6000 00000000  ..........`.....
 601e60 1b000000 00000000 10000000 00000000  ................
 601e70 1a000000 00000000 e81d6000 00000000  ..........`.....
 601e80 1c000000 00000000 08000000 00000000  ................
 601e90 f5feff6f 00000000 98024000 00000000  ...o......@.....
 601ea0 05000000 00000000 c8034000 00000000  ..........@.....
 601eb0 06000000 00000000 c0024000 00000000  ..........@.....
 601ec0 0a000000 00000000 ca000000 00000000  ................
 601ed0 0b000000 00000000 18000000 00000000  ................
 601ee0 15000000 00000000 00000000 00000000  ................
 601ef0 03000000 00000000 00206000 00000000  ......... `.....
 601f00 02000000 00000000 c0000000 00000000  ................
 601f10 14000000 00000000 07000000 00000000  ................
 601f20 17000000 00000000 18054000 00000000  ..........@.....
 601f30 07000000 00000000 e8044000 00000000  ..........@.....
 601f40 08000000 00000000 30000000 00000000  ........0.......
 601f50 09000000 00000000 18000000 00000000  ................
 601f60 feffff6f 00000000 a8044000 00000000  ...o......@.....
 601f70 ffffff6f 00000000 02000000 00000000  ...o............
 601f80 f0ffff6f 00000000 92044000 00000000  ...o......@.....
 601f90 00000000 00000000 00000000 00000000  ................
 601fa0 00000000 00000000 00000000 00000000  ................
 601fb0 00000000 00000000 00000000 00000000  ................
 601fc0 00000000 00000000 00000000 00000000  ................
 601fd0 00000000 00000000 00000000 00000000  ................
 601fe0 00000000 00000000 00000000 00000000  ................
Contents of section .got:
 601ff0 00000000 00000000 00000000 00000000  ................
Contents of section .got.plt:
 602000 f01d6000 00000000 00000000 00000000  ..`.............
 602010 00000000 00000000 06064000 00000000  ..........@.....
 602020 16064000 00000000 26064000 00000000  ..@.....&.@.....
 602030 36064000 00000000 46064000 00000000  6.@.....F.@.....
 602040 56064000 00000000 66064000 00000000  V.@.....f.@.....
 602050 76064000 00000000                    v.@.....        
Contents of section .data:
 602058 00000000                             ....            
Contents of section .comment:
 0000 4743433a 2028474e 55292037 2e332e31  GCC: (GNU) 7.3.1
 0010 20323031 38303133 30202852 65642048   20180130 (Red H
 0020 61742037 2e332e31 2d322900 4743433a  at 7.3.1-2).GCC:
 0030 2028474e 55292037 2e332e31 20323031   (GNU) 7.3.1 201
 0040 38303330 33202852 65642048 61742037  80303 (Red Hat 7
 0050 2e332e31 2d352900                    .3.1-5).        
Contents of section .debug_aranges:
 0000 4c000000 02000000 00000800 00000000  L...............
 0010 57074000 00000000 83090000 00000000  W.@.............
 0020 da104000 00000000 af000000 00000000  ..@.............
 0030 8a114000 00000000 35000000 00000000  ..@.....5.......
 0040 00000000 00000000 00000000 00000000  ................
Contents of section .debug_info:
 0000 6e2e0000 04000000 00000801 80130000  n...............
 0010 04101300 00db0d00 00000000 00000000  ................
 0020 00000000 00000000 00027374 64002000  ..........std. .
 0030 6b0e0000 03781300 0009a608 0409a608  k....x..........
 0040 34000000 0503628b 13000005 03630015  4.....b......c..
 0050 00000503 65681500 00050366 80150000  ....eh.....f....
 0060 05036795 15000005 0368ab15 00000503  ..g......h......
 0070 69c11500 0005036a d6150000 05036bec  i......j......k.
 0080 15000005 036c0d16 00000503 6d2d1600  .....l......m-..
 0090 00050371 47160000 0503726c 16000005  ...qG.....rl....
 00a0 03748b16 00000503 75ab1600 00050376  .t......u......v
 00b0 cc160000 050378e2 16000005 0379f816  ......x......y..
 00c0 00000503 7e041700 00050383 16170000  ....~...........
 00d0 0503842b 17000005 03854517 00000503  ...+......E.....
 00e0 87571700 00050388 6e170000 05038b93  .W......n.......
 00f0 17000005 038d9e17 00000503 8fb31700  ................
 0100 0005044b ce170000 050452f8 17000005  ...K......R.....
 0110 04551218 00000504 5b281800 0005045c  .U......[(.....\
 0120 43180000 05045d62 18000005 045e8018  C.....]b.....^..
 0130 00000504 5f9f1800 00050460 bd180000  ...._......`....
 0140 050540f5 18000005 058bea18 00000505  ..@.............
 0150 8d051900 0005058e 1b190000 05058f37  ...............7
 0160 19000005 05906919 00000505 91841900  ......i.........
 0170 00050592 a5190000 050593c0 19000005  ................
 0180 0594dc19 00000505 95f81900 00050596  ................
 0190 0e1a0000 0505971a 1a000005 0598401a  ..............@.
 01a0 00000505 99651a00 0005059a 811a0000  .....e..........
 01b0 05059bac 1a000005 059cc71a 00000505  ................
 01c0 9edd1a00 000505a0 fe1a0000 0505a11a  ................
 01d0 1b000005 05a2351b 00000505 a45b1b00  ......5......[..
 01e0 000505a7 7b1b0000 0505aaa0 1b000005  ....{...........
 01f0 05acc01b 00000505 aedb1b00 000505b0  ................
 0200 f61b0000 0505b116 1c000005 05b2301c  ..............0.
 0210 00000505 b34a1c00 000505b4 641c0000  .....J......d...
 0220 0505b57e 1c000005 05b6981c 00000505  ...~............
 0230 b7581d00 000505b8 6d1d0000 0505b98c  .X......m.......
 0240 1d000005 05baab1d 00000505 bbca1d00  ................
 0250 000505bc f51d0000 0505bd0f 1e000005  ................
 0260 05bf371e 00000505 c1591e00 000505c2  ..7......Y......
 0270 781e0000 0505c398 1e000005 05c4b81e  x...............
 0280 00000505 c5d71e00 000505c6 ed1e0000  ................
 0290 0505c70d 1f000005 05c82d1f 00000505  ..........-.....
 02a0 c94d1f00 000505ca 6d1f0000 0505cb84  .M......m.......
 02b0 1f000005 05cc9b1f 00000505 cdb91f00  ................
 02c0 000505ce d71f0000 0505cff5 1f000005  ................
 02d0 05d01320 00000605 08013620 00000605  ... ......6 ....
 02e0 09015820 00000605 0a017f20 00000605  ..X ....... ....
 02f0 1801371e 00000605 1b015b1b 00000605  ..7.......[.....
 0300 1e01a01b 00000605 2101db1b 00000605  ........!.......
 0310 25013620 00000605 26015820 00000605  %.6 ....&.X ....
 0320 27017f20 0000079e 03000001 06564903  '.. .........VI.
 0330 0000089e 03000006 59151500 00014203  ........Y.....B.
 0340 000009ab 20000000 000a2603 00000bbc  .... .....&.....
 0350 11000006 5db71100 00490300 000c8519  ....]....I......
 0360 00000734 2e050000 0d871900 0008074f  ...4...........O
 0370 21050000 0ebd1500 000751ef 11000000  !.........Q.....
 0380 0f871900 000753c0 01000093 0300009e  ......S.........
 0390 03000009 b1200000 10ef1100 000011da  ..... ..........
 03a0 00000007 55aa1900 00b10300 00b70300  ....U...........
 03b0 0009b120 00000011 1d0b0000 07564518  ... .........VE.
 03c0 0000ca03 0000d003 000009b1 20000000  ............ ...
 03d0 12e40000 000758ee 0b0000ef 110000e7  ......X.........
 03e0 030000ed 03000009 b7200000 00138719  ......... ......
 03f0 00000760 d70a0000 01010400 00070400  ...`............
 0400 0009b120 00000013 87190000 0762070d  ... .........b..
 0410 0000011b 04000026 04000009 b1200000  .......&..... ..
 0420 10bd2000 00001387 19000007 65611200  .. .........ea..
 0430 00013a04 00004504 000009b1 20000010  ..:...E..... ...
 0440 4a050000 00138719 00000769 ed180000  J..........i....
 0450 01590400 00640400 0009b120 000010c3  .Y...d..... ....
 0460 20000000 14690500 00077641 030000c9   ....i....vA....
 0470 20000001 7c040000 87040000 09b12000   ...|......... .
 0480 0010bd20 00000014 69050000 077a350a  ... ....i....z5.
 0490 0000c920 0000019f 040000aa 04000009  ... ............
 04a0 b1200000 10c32000 00001300 00000007  . .... .........
 04b0 81791800 0001be04 0000c904 000009b1  .y..............
 04c0 20000009 8a110000 0013c411 00000784   ...............
 04d0 70090000 01dd0400 00e80400 0009b120  p.............. 
 04e0 000010c9 20000000 15c70e00 00079054  .... ..........T
 04f0 160000cf 20000001 00050000 06050000  .... ...........
 0500 09b72000 000016c7 09000007 997a1400  .. ..........z..
 0510 00db2000 00011a05 000009b7 20000000  .. ......... ...
 0520 000a6803 00000507 49350500 00000507  ..h.....I5......
 0530 39680300 00172306 00000745 8c120000  9h....#....E....
 0540 4a050000 10680300 0000187c 04000009  J....h.....|....
 0550 9408a620 000019a1 0200000a 56050000  ... ........V...
 0560 07521300 00010845 d1050000 1a2c0000  .R.....E.....,..
 0570 000847d6 2000001b cc060000 0848cf20  ..G. ........H. 
 0580 0000129e 06000008 4a910c00 00770500  ........J....w..
 0590 00990500 009f0500 0009e120 00000012  ........... ....
 05a0 30130000 084f1510 00007705 0000b605  0....O....w.....
 05b0 0000bc05 000009e1 20000000 1c5f5470  ........ ...._Tp
 05c0 00cf2000 001d5f5f 7600cf20 00000100  .. ...__v.. ....
 05d0 000a6005 0000070a 09000001 08454706  ..`..........EG.
 05e0 00001a2c 00000008 47d62000 001bcc06  ...,....G. .....
 05f0 00000848 cf200000 12300900 00084a21  ...H. ...0....J!
 0600 020000ed 0500000f 06000015 06000009  ................
 0610 e7200000 00123013 0000084f 01110000  . ....0....O....
 0620 ed050000 2c060000 32060000 09e72000  ....,...2..... .
 0630 00001c5f 547000cf 2000001d 5f5f7600  ..._Tp.. ...__v.
 0640 cf200000 0101000a d6050000 03e81400  . ..............
 0650 00081b0a 032d1700 0008690a 07350d00  .....-....i..5..
 0660 00010a7f 86060000 1e070434 1100000a  ...........4....
 0670 817c0600 001f2a00 00000000 1c5f5470  .|....*......_Tp
 0680 00512000 0000073b 11000001 0a7fb006  .Q ....;........
 0690 00001e07 04341100 000a81a6 0600001f  .....4..........
 06a0 2a000000 00001c5f 5470002a 1e000000  *......_Tp.*....
 06b0 07320000 00010a7f da060000 1e070434  .2.............4
 06c0 1100000a 81d00600 001f2a00 00000000  ..........*.....
 06d0 1c5f5470 00521e00 000007ab 0b000001  ._Tp.R..........
 06e0 0b4cfd06 000008ab 0b00000b 4ce20f00  .L..........L...
 06f0 0001f606 000009fb 20000000 000ada06  ........ .......
 0700 000020c1 0d00000b 4ffd0600 00010021  .. .....O......!
 0710 8d150000 0c3222a7 0e000001 0d1301e4  .....2".........
 0720 08000018 7c150000 0d1501f7 1100000a  ....|...........
 0730 23070000 185c1500 000d1601 8a110000  #....\..........
 0740 0a340700 0023eb19 00000d1c 01d41600  .4...#..........
 0750 00600700 00101921 0000101f 21000000  .`.....!....!...
 0760 24657100 0d2001e8 120000cf 2000007e  $eq.. ...... ..~
 0770 07000010 1f210000 101f2100 0000246c  .....!....!...$l
 0780 74000d24 01400400 00cf2000 009c0700  t..$.@.... .....
 0790 00101f21 0000101f 21000000 25ea0800  ...!....!...%...
 07a0 000d2c01 7a110000 8a110000 c0070000  ..,.z...........
 07b0 10252100 00102521 000010e4 08000000  .%!...%!........
 07c0 25111200 000d3a01 d1150000 e4080000  %.....:.........
 07d0 da070000 10252100 00002597 0a00000d  .....%!...%.....
 07e0 4401560d 00002521 0000fe07 00001025  D.V...%!.......%
 07f0 21000010 e4080000 101f2100 00002527  !.........!...%'
 0800 0500000d 52017502 00002b21 00002208  ....R.u...+!..".
 0810 0000102b 21000010 25210000 10e40800  ...+!...%!......
 0820 0000253b 0400000d 5a01750a 00002b21  ..%;....Z.u...+!
 0830 00004608 0000102b 21000010 25210000  ..F....+!...%!..
 0840 10e40800 000025eb 1900000d 62017910  ......%.....b.y.
 0850 00002b21 00006a08 0000102b 21000010  ..+!..j....+!...
 0860 e4080000 10230700 00002579 1500000d  .....#....%y....
 0870 6a01300f 00002307 00008408 00001031  j.0...#........1
 0880 21000000 25591500 000d7001 4f1a0000  !...%Y....p.O...
 0890 34070000 9e080000 101f2100 000025c1  4.........!...%.
 08a0 0b00000d 7401d50e 0000cf20 0000bd08  ....t...... ....
 08b0 00001031 21000010 31210000 0026656f  ...1!...1!...&eo
 08c0 66000d78 01010b00 00340700 00270a06  f..x.....4...'..
 08d0 00000d7c 01f21900 00340700 00103121  ...|.....4....1!
 08e0 00000000 18150000 00099008 1a110000  ................
 08f0 22c21700 00010d84 01be0a00 00187c15  ".............|.
 0900 00000d86 015d1900 000afd08 0000185c  .....].........\
 0910 1500000d 8701ea18 00000a0e 09000023  ...............#
 0920 eb190000 0d8d0176 0800003a 09000010  .......v...:....
 0930 37210000 103d2100 00002465 71000d91  7!...=!...$eq...
 0940 011b0400 00cf2000 00580900 00103d21  ...... ..X....=!
 0950 0000103d 21000000 246c7400 0d95013a  ...=!...$lt....:
 0960 100000cf 20000076 09000010 3d210000  .... ..v....=!..
 0970 103d2100 000025ea 0800000d 9901d706  .=!...%.........
 0980 00008a11 00009a09 00001043 21000010  ...........C!...
 0990 43210000 10e40800 00002511 1200000d  C!........%.....
 09a0 a801cd0b 0000e408 0000b409 00001043  ...............C
 09b0 21000000 25970a00 000db301 6a0b0000  !...%.......j...
 09c0 43210000 d8090000 10432100 0010e408  C!.......C!.....
 09d0 0000103d 21000000 25270500 000dc201  ...=!...%'......
 09e0 1d160000 49210000 fc090000 10492100  ....I!.......I!.
 09f0 00104321 000010e4 08000000 253b0400  ..C!........%;..
 0a00 000dca01 88010000 49210000 200a0000  ........I!.. ...
 0a10 10492100 00104321 000010e4 08000000  .I!...C!........
 0a20 25eb1900 000dd201 f2150000 49210000  %...........I!..
 0a30 440a0000 10492100 0010e408 000010fd  D....I!.........
 0a40 08000000 25791500 000dda01 a2040000  ....%y..........
 0a50 fd080000 5e0a0000 104f2100 00002559  ....^....O!...%Y
 0a60 1500000d de015e19 00000e09 0000780a  ......^.......x.
 0a70 0000103d 21000000 25c10b00 000de201  ...=!...%.......
 0a80 640f0000 cf200000 970a0000 104f2100  d.... .......O!.
 0a90 00104f21 00000026 656f6600 0de6014f  ..O!...&eof....O
 0aa0 0600000e 09000027 0a060000 0dea0130  .......'.......0
 0ab0 1500000e 09000010 4f210000 0000050e  ........O!......
 0ac0 30552100 00050e31 60210000 050e326b  0U!....1`!....2k
 0ad0 21000005 0e337621 0000050e 35052200  !....3v!....5.".
 0ae0 00050e36 10220000 050e371b 22000005  ...6."....7."...
 0af0 0e382622 0000050e 3aad2100 00050e3b  .8&"....:.!....;
 0b00 b8210000 050e3cc3 21000005 0e3dce21  .!....<.!....=.!
 0b10 0000050e 3f732200 00050e40 5d220000  ....?s"....@]"..
 0b20 050e4281 21000005 0e438c21 0000050e  ..B.!....C.!....
 0b30 44972100 00050e45 a2210000 050e4731  D.!....E.!....G1
 0b40 22000005 0e483c22 0000050e 49472200  "....H<"....IG".
 0b50 00050e4a 52220000 050e4cd9 21000005  ...JR"....L.!...
 0b60 0e4de421 0000050e 4eef2100 00050e4f  .M.!....N.!....O
 0b70 fa210000 050e517e 22000005 0e526822  .!....Q~"....Rh"
 0b80 0000050f 35972200 00050f36 c4230000  ....5."....6.#..
 0b90 050f37de 23000018 03080000 099108ac  ..7.#...........
 0ba0 11000005 107c7d24 00000510 7dad2400  .....|}$....}.$.
 0bb0 00051080 0e250000 0510832b 25000005  .....%.....+%...
 0bc0 10864525 00000510 875a2500 00051088  ..E%.....Z%.....
 0bd0 6f250000 05108984 25000005 108bae25  o%......%......%
 0be0 00000510 8ec92500 00051090 df250000  ......%......%..
 0bf0 051093fa 25000005 10941526 00000510  ....%......&....
 0c00 95352600 00051097 55260000 05109a76  .5&.....U&.....v
 0c10 26000005 109d8826 00000510 9f942600  &......&......&.
 0c20 000510a0 a6260000 0510a1c6 26000005  .....&......&...
 0c30 10a2e526 00000510 a3042700 000510a5  ...&......'.....
 0c40 1a270000 0510a63a 27000005 10eadd24  .'.....:'......$
 0c50 00000510 ef260f00 000510f0 55270000  .....&......U'..
 0c60 0510f270 27000005 10f3c327 00000510  ...p'......'....
 0c70 f4852700 000510f5 a4270000 0510f6dd  ..'......'......
 0c80 27000028 f2010000 11fe19a0 0c000003  '..(............
 0c90 eb010000 11001a04 11011a8f 0c000000  ................
 0ca0 0411ff19 830c0000 295f5632 0012472a  ........)_V2..G*
 0cb0 1247a80c 00002b67 1400001a 0d00002c  .G....+g.......,
 0cc0 0c040000 01135902 012d580f 00001361  ......Y..-X....a
 0cd0 024d2400 002d8604 00001362 02cf2000  .M$..-.....b.. .
 0ce0 002e0c04 0000135d 02d01400 0001f60c  .......]........
 0cf0 0000fc0c 0000090d 28000000 2f0b0400  ........(.../...
 0d00 00135e02 51070000 010d0d00 00090d28  ..^.Q..........(
 0d10 0000098a 11000000 00000514 521e2800  ............R.(.
 0d20 00051453 13280000 051454ea 18000005  ...S.(....T.....
 0d30 145c2f28 00000514 65492800 00051468  .\/(....eI(....h
 0d40 63280000 05146978 2800002b 33050000  c(....ix(..+3...
 0d50 670d0000 30f90800 00f71100 00317f0c  g...0........1..
 0d60 00001607 0000002b 6b060000 830d0000  .......+k.......
 0d70 30f90800 005d1900 00317f0c 0000f008  0....]...1......
 0d80 0000002b 9f070000 9f0d0000 30f90800  ...+........0...
 0d90 00f71100 00317f0c 00001607 0000002b  .....1.........+
 0da0 e0130000 bb0d0000 30f90800 005d1900  ........0....]..
 0db0 00317f0c 0000f008 0000001b d8130000  .1..............
 0dc0 158a830d 00003263 696e0002 3cf71600  ......2cin..<...
 0dd0 00bb0d00 001ba109 0000158d 4b0d0000  ............K...
 0de0 0b580e00 00023d53 0e0000d5 0d00000b  .X....=S........
 0df0 570b0000 023e520b 0000d50d 00000bde  W....>R.........
 0e00 04000002 3fd90400 00d50d00 001bd713  ....?...........
 0e10 000015b2 9f0d0000 0b851600 00024280  ..............B.
 0e20 1600000d 0e00001b a0090000 15b5670d  ..............g.
 0e30 00000bf9 04000002 43f40400 00270e00  ........C....'..
 0e40 000b5a01 00000244 55010000 270e0000  ..Z....DU...'...
 0e50 0b6f0a00 0002456a 0a000027 0e000033  .o....Ej...'...3
 0e60 60040000 024abf0c 00000028 0b100000  `....J.....(....
 0e70 09a8080f 11000003 78130000 09aa0804  ........x.......
 0e80 09aa0877 0e000005 05f83620 00000605  ...w......6 ....
 0e90 01015820 00000605 02017f20 0000213a  ..X ....... ..!:
 0ea0 19000016 2305172c e4080000 05172d97  ....#..,......-.
 0eb0 0b000007 46000000 011837f5 0e000034  ....F.....7....4
 0ec0 79070000 183a9111 000034e5 19000018  y....:....4.....
 0ed0 3b911100 00344306 0000183f d6200000  ;....4C....?. ..
 0ee0 343b1300 00184091 11000030 9b040000  4;....@....0....
 0ef0 8a110000 000510c2 dd240000 0510d255  .........$.....U
 0f00 27000005 10dd7027 00000510 de852700  '.....p'......'.
 0f10 000510df a4270000 0510e1c3 27000005  .....'......'...
 0f20 10e2dd27 00003564 69760010 cfbf1600  ...'..5div......
 0f30 00dd2400 00440f00 00107820 00001078  ..$..D....x ...x
 0f40 20000000 07241800 00011864 860f0000   ....$.....d....
 0f50 34a31800 00186791 11000034 43060000  4.....g....4C...
 0f60 186ad620 000034de 03000018 6b911100  .j. ..4.....k...
 0f70 0034df0c 0000186c 91110000 309b0400  .4.....l....0...
 0f80 00521e00 000007d0 10000001 1864c80f  .R...........d..
 0f90 000034a3 18000018 67911100 00344306  ..4.....g....4C.
 0fa0 0000186a d6200000 34de0300 00186b91  ...j. ..4.....k.
 0fb0 11000034 df0c0000 186c9111 0000309b  ...4.....l....0.
 0fc0 0400002a 1e000000 071a0300 00011864  ...*...........d
 0fd0 0a100000 34a31800 00186791 11000034  ....4.....g....4
 0fe0 43060000 186ad620 000034de 03000018  C....j. ..4.....
 0ff0 6b911100 0034df0c 0000186c 91110000  k....4.....l....
 1000 309b0400 00512000 000007b9 18000001  0....Q .........
 1010 18374c10 00003479 07000018 3a211100  .7L...4y....:!..
 1020 0034e519 0000183b 21110000 34430600  .4.....;!...4C..
 1030 00183fd6 20000034 3b130000 18409111  ..?. ..4;....@..
 1040 0000309b 0400001a 11000000 07af0300  ..0.............
 1050 00011837 8e100000 34790700 00183afe  ...7....4y....:.
 1060 11000034 e5190000 183bfe11 00003443  ...4.....;....4C
 1070 06000018 3fd62000 00343b13 00001840  ....?. ..4;....@
 1080 91110000 309b0400 00f71100 0000079e  ....0...........
 1090 17000001 1837d010 00003479 07000018  .....7....4y....
 10a0 3a6a1100 0034e519 0000183b 6a110000  :j...4.....;j...
 10b0 34430600 00183fd6 20000034 3b130000  4C....?. ..4;...
 10c0 18409111 0000309b 04000063 11000000  .@....0....c....
 10d0 36ad1000 00011837 34790700 00183ab3  6......74y....:.
 10e0 11000034 e5190000 183bb311 00003443  ...4.....;....4C
 10f0 06000018 3fd62000 00343b13 00001840  ....?. ..4;....@
 1100 91110000 309b0400 00ac1100 0000001b  ....0...........
 1110 15000000 19d81a11 00003708 07a51100  ..........7.....
 1120 000a1a11 00003701 088a0500 00370207  ......7......7..
 1130 1a190000 370407aa 1100001b 32110000  ....7.......2...
 1140 1a244611 00003701 068c0500 001b9702  .$F...7.........
 1150 00001a25 26110000 1b131400 001a2663  ...%&.........&c
 1160 11000037 0205b315 00000a63 1100001b  ...7.......c....
 1170 1f070000 1a272d11 00001bc6 1400001a  .....'-.........
 1180 288a1100 000a7a11 00003804 05696e74  (.....z...8..int
 1190 000a8a11 00001bc6 0c00001a 29341100  ............)4..
 11a0 001b5917 00001a2b ac110000 370805d6  ..Y....+....7...
 11b0 0c00000a ac110000 1b9c0a00 001a2c1a  ..............,.
 11c0 1100001b 5d0e0000 1a3dac11 00001bb3  ....]....=......
 11d0 1600001a 3e1a1100 001b2012 00001a8c  ....>..... .....
 11e0 ac110000 1b701400 001a8dac 11000039  .....p.........9
 11f0 083a08f7 11000037 01069305 00000af7  .:.....7........
 1200 1100001b d0130000 1b050e12 000007ff  ................
 1210 040000d8 1cf18b13 00000eb4 0f00001c  ................
 1220 f28a1100 00000ecc 0700001c f7f11100  ................
 1230 00080e80 1700001c f8f11100 00100e44  ...............D
 1240 0b00001c f9f11100 00180e06 0100001c  ................
 1250 faf11100 00200e49 1900001c fbf11100  ..... .I........
 1260 00280e81 0d00001c fcf11100 00300e68  .(...........0.h
 1270 0e00001c fdf11100 00380e09 1500001c  .........8......
 1280 fef11100 00403b60 0100001c 0001f111  .....@;`........
 1290 0000483b 1d140000 1c0101f1 11000050  ..H;...........P
 12a0 3bb40000 001c0201 f1110000 583b9908  ;...........X;..
 12b0 00001c04 019a1400 00603b09 0200001c  .........`;.....
 12c0 0601a014 0000683b f4170000 1c08018a  ......h;........
 12d0 11000070 3b280b00 001c0c01 8a110000  ...p;(..........
 12e0 743b310c 00001c0e 01d91100 00783b47  t;1..........x;G
 12f0 0200001c 12012d11 0000803b 8a160000  ......-....;....
 1300 1c130146 11000082 3b371400 001c1401  ...F....;7......
 1310 a6140000 833b1c01 00001c18 01b61400  .....;..........
 1320 00883b35 0c00001c 2101e411 0000903b  ..;5....!......;
 1330 ff0e0000 1c2901ef 11000098 3b060f00  .....)......;...
 1340 001c2a01 ef110000 a03b0d0f 00001c2b  ..*......;.....+
 1350 01ef1100 00a83b14 0f00001c 2c01ef11  ......;.....,...
 1360 0000b03b 1b0f0000 1c2e010f 110000b8  ...;............
 1370 3bcc0f00 001c2f01 8a110000 c03be409  ;...../......;..
 1380 00001c31 01bc1400 00c4001b 03050000  ...1............
 1390 1d070e12 00003c08 1e0e0f17 0000da13  ......<.........
 13a0 00003d04 1e11c113 00003e6f 0200001e  ..=.......>o....
 13b0 12341100 003efa10 00001e13 da130000  .4...>..........
 13c0 000e0310 00001e0f 8a110000 000e2a00  ..............*.
 13d0 00001e14 a2130000 04003ff7 110000ea  ..........?.....
 13e0 13000040 1a110000 03001b11 1700001e  ...@............
 13f0 15961300 003c101f 17f30000 001a1400  .....<..........
 1400 000e0302 00001f18 d9110000 000e3f16  ..............?.
 1410 00001f19 ea130000 08001bf4 0000001f  ................
 1420 1af51300 0007231a 00001820 00621400  ......#.... .b..
 1430 000ef30d 00002000 34110000 000ef307  ...... .4.......
 1440 00002000 34110000 040e9b0f 00002000  .. .4......... .
 1450 ef110000 080ec911 00002000 ef110000  .......... .....
 1460 10004114 0700001c 9607e903 0000181c  ..A.............
 1470 9c9a1400 000e6114 00001c9d 9a140000  ......a.........
 1480 000e2a0f 00001c9e a0140000 080e0402  ..*.............
 1490 00001ca2 8a110000 10003a08 69140000  ..........:.i...
 14a0 3a080e12 00003ff7 110000b6 14000040  :.....?........@
 14b0 1a110000 00003a08 62140000 3ff71100  ......:.b...?...
 14c0 00cc1400 00401a11 00001300 42350600  .....@......B5..
 14d0 0043c80a 00001c3b 01cc1400 00434114  .C.....;.....CA.
 14e0 00001c3c 01cc1400 00439600 00001c3d  ...<.....C.....=
 14f0 01cc1400 003a08fe 1100000a f5140000  .....:..........
 1500 1bf70000 00214e1a 1400000a 00150000  .....!N.........
 1510 44500800 002187a0 14000044 2d190000  DP...!.....D-...
 1520 2188a014 000044ac 15000021 89a01400  !.....D....!....
 1530 0044f702 0000221a 8a110000 3ffb1400  .D....".....?...
 1540 00471500 00450044 a7160000 221b3c15  .G...E.D....".<.
 1550 000044f6 02000022 1e8a1100 0044a616  ..D....".....D..
 1560 0000221f 3c150000 46180200 0021f502  ..".<...F....!..
 1570 7a150000 107a1500 00003a08 8b130000  z....z....:.....
 1580 47aa0500 0021c78a 11000095 15000010  G....!..........
 1590 7a150000 00486810 000021f7 028a1100  z....Hh...!.....
 15a0 00ab1500 00107a15 00000048 95150000  ......z....H....
 15b0 21f9028a 110000c1 15000010 7a150000  !...........z...
 15c0 0047141a 000021cc 8a110000 d6150000  .G....!.........
 15d0 107a1500 0000480f 00000021 dd018a11  .z....H....!....
 15e0 0000ec15 0000107a 15000000 48fb0100  .......z....H...
 15f0 0021db02 8a110000 07160000 107a1500  .!...........z..
 1600 00100716 0000003a 08001500 00481c00  .......:.....H..
 1610 00002134 02f11100 002d1600 0010f111  ..!4.....-......
 1620 0000108a 11000010 7a150000 0047c014  ........z....G..
 1630 000021e8 7a150000 47160000 10f51400  ..!.z...G.......
 1640 0010f514 00000048 34190000 2186020f  .......H4...!...
 1650 1100006c 16000010 ef110000 100f1100  ...l............
 1660 00100f11 0000107a 15000000 47761a00  .......z....Gv..
 1670 0021ee7a 1500008b 16000010 f5140000  .!.z............
 1680 10f51400 00107a15 00000048 47160000  ......z....HG...
 1690 21ac028a 110000ab 16000010 7a150000  !...........z...
 16a0 10ac1100 00108a11 00000048 640c0000  ...........Hd...
 16b0 21e0028a 110000c6 16000010 7a150000  !...........z...
 16c0 10c61600 00003a08 0b150000 48fd0700  ......:.....H...
 16d0 0021b102 ac110000 e2160000 107a1500  .!...........z..
 16e0 00004810 00000021 de018a11 0000f816  ..H....!........
 16f0 0000107a 15000000 49da0f00 0021e401  ...z....I....!..
 1700 8a110000 46b90e00 00210703 16170000  ....F....!......
 1710 10f51400 00004725 05000021 908a1100  ......G%...!....
 1720 002b1700 0010f514 00000047 ad0f0000  .+.........G....
 1730 21928a11 00004517 000010f5 14000010  !.....E.........
 1740 f5140000 00460215 000021b6 02571700  .....F....!..W..
 1750 00107a15 00000046 c8120000 2122016e  ..z....F....!".n
 1760 17000010 7a150000 10f11100 00004822  ....z.........H"
 1770 0f000021 26018a11 00009317 0000107a  ...!&..........z
 1780 15000010 f1110000 108a1100 00100f11  ................
 1790 0000004a 07170000 219f7a15 00004715  ...J....!.z...G.
 17a0 01000021 adf11100 00b31700 0010f111  ...!............
 17b0 00000048 63170000 217f028a 110000ce  ...Hc...!.......
 17c0 17000010 8a110000 107a1500 00004bb2  .........z....K.
 17d0 05000023 48b20500 00f11700 00f11700  ...#H...........
 17e0 0010f117 0000108a 11000010 0f110000  ................
 17f0 003a08f7 1700004c 47780300 00238f8a  .:.....LGx...#..
 1800 11000012 18000010 f5140000 10f51400  ................
 1810 00004832 0e000023 8c01f111 00002818  ..H2...#......(.
 1820 0000108a 11000000 48ab0200 00234f01  ........H....#O.
 1830 f1110000 43180000 10f11100 0010f514  ....C...........
 1840 00000047 290c0000 23920f11 00006218  ...G)...#.....b.
 1850 000010f1 11000010 f5140000 100f1100  ................
 1860 00004ba8 03000023 cfa80300 00f51400  ..K....#........
 1870 00801800 0010f514 0000108a 11000000  ................
 1880 25d20f00 00231c01 d20f0000 f5140000  %....#..........
 1890 9f180000 10f51400 0010f514 0000004b  ...............K
 18a0 ff0c0000 23eaff0c 0000f514 0000bd18  ....#...........
 18b0 000010f5 14000010 8a110000 0025b914  .............%..
 18c0 00002337 01b91400 00f51400 00dc1800  ..#7............
 18d0 0010f514 000010f5 14000000 3720036d  ............7 .m
 18e0 10000037 10041e0c 00001b51 14000024  ...7.......Q...$
 18f0 14341100 001b1317 00002506 ea130000  .4........%.....
 1900 0af51800 00487b0d 0000261c 01ea1800  .....H{...&.....
 1910 001b1900 00108a11 00000048 73050000  ...........Hs...
 1920 269402ea 18000031 19000010 31190000  &......1....1...
 1930 003a0803 12000048 83050000 26b10257  .:.....H....&..W
 1940 19000057 19000010 57190000 108a1100  ...W....W.......
 1950 00103119 0000003a 085d1900 00370405  ..1....:.]...7..
 1960 1b1a0000 0a5d1900 0048b218 000026a2  .....]...H....&.
 1970 02ea1800 00841900 00105d19 00001031  ..........]....1
 1980 19000000 48571900 0026b802 8a110000  ....HW...&......
 1990 9f190000 109f1900 00103119 0000003a  ..........1....:
 19a0 08641900 0048a909 000026fa 018a1100  .d...H....&.....
 19b0 00c01900 00103119 0000108a 11000000  ......1.........
 19c0 48880c00 00260102 8a110000 dc190000  H....&..........
 19d0 10311900 00109f19 00004d00 48411900  .1........M.HA..
 19e0 00262a02 8a110000 f8190000 10311900  .&*..........1..
 19f0 00109f19 00004d00 48740500 00269502  ......M.Ht...&..
 1a00 ea180000 0e1a0000 10311900 0000497a  .........1....Iz
 1a10 05000026 9b02ea18 00004849 08000026  ...&......HI...&
 1a20 33010f11 00003a1a 000010f5 14000010  3.....:.........
 1a30 0f110000 103a1a00 00003a08 f5180000  .....:....:.....
 1a40 486e0100 00262801 0f110000 651a0000  Hn...&(.....e...
 1a50 10571900 0010f514 0000100f 11000010  .W..............
 1a60 3a1a0000 00480813 00002624 018a1100  :....H....&$....
 1a70 007b1a00 00107b1a 0000003a 08001900  .{....{....:....
 1a80 00481a18 00002651 010f1100 00a61a00  .H....&Q........
 1a90 00105719 000010a6 1a000010 0f110000  ..W.............
 1aa0 103a1a00 00003a08 f5140000 48b31800  .:....:.....H...
 1ab0 0026a302 ea180000 c71a0000 105d1900  .&...........]..
 1ac0 00103119 00000048 ed090000 26a902ea  ..1....H....&...
 1ad0 180000dd 1a000010 5d190000 00480109  ........]....H..
 1ae0 0000260b 028a1100 00fe1a00 00105719  ..&...........W.
 1af0 0000100f 11000010 9f190000 4d004812  ............M.H.
 1b00 18000026 34028a11 00001a1b 0000109f  ...&4...........
 1b10 19000010 9f190000 4d0048eb 07000026  ........M.H....&
 1b20 c002ea18 0000351b 000010ea 18000010  ......5.........
 1b30 31190000 0048870c 00002613 028a1100  1....H....&.....
 1b40 00551b00 00103119 0000109f 19000010  .U....1.........
 1b50 551b0000 003a0825 14000048 40190000  U....:.%...H@...
 1b60 265e028a 1100007b 1b000010 31190000  &^.....{....1...
 1b70 109f1900 0010551b 00000048 00090000  ......U....H....
 1b80 2620028a 110000a0 1b000010 57190000  & ..........W...
 1b90 100f1100 00109f19 00001055 1b000000  ...........U....
 1ba0 48111800 00266a02 8a110000 c01b0000  H....&j.........
 1bb0 109f1900 00109f19 00001055 1b000000  ...........U....
 1bc0 48ce0300 00261b02 8a110000 db1b0000  H....&..........
 1bd0 109f1900 0010551b 00000048 6a170000  ......U....Hj...
 1be0 2666028a 110000f6 1b000010 9f190000  &f..............
 1bf0 10551b00 00004872 17000026 2d010f11  .U....Hr...&-...
 1c00 0000161c 000010f1 11000010 5d190000  ............]...
 1c10 103a1a00 00004700 17000026 61571900  .:....G....&aW..
 1c20 00301c00 00105719 0000109f 19000000  .0....W.........
 1c30 47fd0500 00266a8a 1100004a 1c000010  G....&j....J....
 1c40 9f190000 109f1900 00004710 02000026  ..........G....&
 1c50 838a1100 00641c00 00109f19 0000109f  .....d..........
 1c60 19000000 47f20800 00265757 1900007e  ....G....&WW...~
 1c70 1c000010 57190000 109f1900 000047c7  ....W.........G.
 1c80 00000026 bb0f1100 00981c00 00109f19  ...&............
 1c90 0000109f 19000000 48141600 00260003  ........H....&..
 1ca0 0f110000 bd1c0000 10571900 00100f11  .........W......
 1cb0 0000109f 19000010 bd1c0000 003a0853  .............:.S
 1cc0 1d00004e 746d0038 2707531d 00000ecf  ...Ntm.8'.S.....
 1cd0 12000027 098a1100 00000e7f 07000027  ...'...........'
 1ce0 0a8a1100 00040e22 00000027 0b8a1100  ......."...'....
 1cf0 00080ef2 10000027 0c8a1100 000c0ef8  .......'........
 1d00 0c000027 0d8a1100 00100ee5 18000027  ...'...........'
 1d10 0e8a1100 00140ee0 12000027 0f8a1100  ...........'....
 1d20 00180ee3 04000027 108a1100 001c0e6f  .......'.......o
 1d30 03000027 118a1100 00200e97 0b000027  ...'..... .....'
 1d40 14ac1100 00280e51 17000027 15f51400  .....(.Q...'....
 1d50 0030000a c31c0000 47291500 0026de0f  .0......G)...&..
 1d60 1100006d 1d000010 9f190000 00479617  ...m.........G..
 1d70 00002665 57190000 8c1d0000 10571900  ..&eW........W..
 1d80 00109f19 0000100f 11000000 470c0700  ............G...
 1d90 00266d8a 110000ab 1d000010 9f190000  .&m.............
 1da0 109f1900 00100f11 00000047 dc090000  ...........G....
 1db0 265c5719 0000ca1d 00001057 19000010  &\W........W....
 1dc0 9f190000 100f1100 000048d6 12000026  ..........H....&
 1dd0 57010f11 0000ef1d 000010f1 11000010  W...............
 1de0 ef1d0000 100f1100 00103a1a 0000003a  ..........:....:
 1df0 089f1900 0047c00e 000026bf 0f110000  .....G....&.....
 1e00 0f1e0000 109f1900 00109f19 00000048  ...............H
 1e10 44130000 2679012a 1e00002a 1e000010  D...&y.*...*....
 1e20 9f190000 10311e00 00003708 04a61000  .....1....7.....
 1e30 003a0857 19000048 4b130000 267e0152  .:.W...HK...&~.R
 1e40 1e000052 1e000010 9f190000 10311e00  ...R.........1..
 1e50 00003704 043b0e00 00477113 000026d9  ..7..;...Gq...&.
 1e60 57190000 781e0000 10571900 00109f19  W...x....W......
 1e70 00001031 1e000000 484f0d00 00268d01  ...1....HO...&..
 1e80 ac110000 981e0000 109f1900 0010311e  ..............1.
 1e90 0000108a 11000000 48471a00 00269201  ........HG...&..
 1ea0 1a110000 b81e0000 109f1900 0010311e  ..............1.
 1eb0 0000108a 11000000 47800100 0026870f  ........G....&..
 1ec0 110000d7 1e000010 57190000 109f1900  ........W.......
 1ed0 00100f11 00000048 d50d0000 2620018a  .......H....& ..
 1ee0 110000ed 1e000010 ea180000 0048620a  .............Hb.
 1ef0 00002602 018a1100 000d1f00 00109f19  ..&.............
 1f00 0000109f 19000010 0f110000 0048f00c  .............H..
 1f10 00002606 01571900 002d1f00 00105719  ..&..W...-....W.
 1f20 0000109f 19000010 0f110000 00486907  .............Hi.
 1f30 0000260b 01571900 004d1f00 00105719  ..&..W...M....W.
 1f40 0000109f 19000010 0f110000 00486809  .............Hh.
 1f50 0000260f 01571900 006d1f00 00105719  ..&..W...m....W.
 1f60 0000105d 19000010 0f110000 0048890c  ...].........H..
 1f70 00002608 028a1100 00841f00 00109f19  ..&.............
 1f80 00004d00 48421900 00263102 8a110000  ..M.HB...&1.....
 1f90 9b1f0000 109f1900 004d004b 40010000  .........M.K@...
 1fa0 26a14001 00009f19 0000b91f 0000109f  &.@.............
 1fb0 19000010 5d190000 004b1b06 000026c5  ....]....K....&.
 1fc0 1b060000 9f190000 d71f0000 109f1900  ................
 1fd0 00109f19 0000004b 00030000 26ab0003  .......K....&...
 1fe0 00009f19 0000f51f 0000109f 19000010  ................
 1ff0 5d190000 004b2812 000026d0 28120000  ]....K(...&.(...
 2000 9f190000 13200000 109f1900 00109f19  ..... ..........
 2010 0000004b b1050000 26f9b105 00009f19  ...K....&.......
 2020 00003620 0000109f 19000010 5d190000  ..6 ........]...
 2030 100f1100 000048d7 11000026 80015120  ......H....&..Q 
 2040 00005120 0000109f 19000010 311e0000  ..Q ........1...
 2050 00371004 a1100000 48181200 00269a01  .7......H....&..
 2060 78200000 78200000 109f1900 0010311e  x ..x ........1.
 2070 0000108a 11000000 370805d1 0c000048  ........7......H
 2080 a2080000 26a1019f 2000009f 20000010  ....&... ... ...
 2090 9f190000 10311e00 00108a11 00000037  .....1.........7
 20a0 0807a011 00004f41 0e00003a 08260300  ......OA...:.&..
 20b0 003a0868 0300003a 08210500 00500821  .:.h...:.!...P.!
 20c0 05000051 08680300 00500868 03000037  ...Q.h...P.h...7
 20d0 0102d00e 00000acf 2000003a 085b0500  ........ ..:.[..
 20e0 003a08d1 0500003a 08470600 00371007  .:.....:.G...7..
 20f0 98050000 37100558 1400003a 08da0600  ....7..X...:....
 2100 00520207 00000c30 0b00000c 38192100  .R.....0....8.!.
 2110 002a0c3a 0f070000 00500823 07000050  .*.:.....P.#...P
 2120 082f0700 003a082f 0700003a 08230700  ./...:./...:.#..
 2130 00500840 07000050 08fd0800 00500809  .P.@...P.....P..
 2140 0900003a 08090900 003a08fd 08000050  ...:.....:.....P
 2150 081a0900 001b3411 00002818 3b110000  ......4...(.;...
 2160 1b151400 00281958 1100001b c8140000  .....(.X........
 2170 281a7a11 00001b5b 17000028 1ba11100  (.z....[...(....
 2180 001b9902 00002918 4d110000 1b210700  ......).M....!..
 2190 0029196f 1100001b c80c0000 291a9611  .).o........)...
 21a0 00001b9e 0a000029 1bb81100 001b5b10  .......)......[.
 21b0 00002a2b 46110000 1bba0a00 002a2c63  ..*+F........*,c
 21c0 1100001b fe060000 2a2d8a11 00001bcb  ........*-......
 21d0 0400002a 2fac1100 001b5a10 00002a36  ...*/.....Z...*6
 21e0 26110000 1bb90a00 002a372d 1100001b  &........*7-....
 21f0 fd060000 2a383411 00001bca 0400002a  ....*84........*
 2200 3a1a1100 001b6d15 00002a44 46110000  :.....m...*DF...
 2210 1bfd1700 002a46ac 1100001b 54020000  .....*F.....T...
 2220 2a47ac11 00001ba7 0000002a 48ac1100  *G.........*H...
 2230 001b6c15 00002a51 26110000 1bfc1700  ..l...*Q&.......
 2240 002a531a 1100001b 53020000 2a541a11  .*S.....S...*T..
 2250 00001ba6 0000002a 551a1100 001ba20b  .......*U.......
 2260 00002a61 ac110000 1ba10b00 002a641a  ..*a.........*d.
 2270 1100001b 5f0e0000 2a6fc311 00001bb5  ...._...*o......
 2280 1600002a 70ce1100 00370210 b9050000  ...*p....7......
 2290 37041061 0b000007 7a170000 602b33c4  7..a....z...`+3.
 22a0 2300000e 0c030000 2b37f111 0000000e  #.......+7......
 22b0 dd070000 2b38f111 0000080e 9d160000  ....+8..........
 22c0 2b3ef111 0000100e 30010000 2b44f111  +>......0...+D..
 22d0 0000180e 9c150000 2b45f111 0000200e  ........+E.... .
 22e0 08030000 2b46f111 0000280e d9070000  ....+F....(.....
 22f0 2b47f111 0000300e 99160000 2b48f111  +G....0.....+H..
 2300 0000380e 61020000 2b49f111 0000400e  ..8.a...+I....@.
 2310 56080000 2b4af111 0000480e b0010000  V...+J....H.....
 2320 2b4bf711 0000500e b4010000 2b4cf711  +K....P.....+L..
 2330 0000510e 68080000 2b4ef711 0000520e  ..Q.h...+N....R.
 2340 8a070000 2b50f711 0000530e fd030000  ....+P....S.....
 2350 2b52f711 0000540e 700c0000 2b54f711  +R....T.p...+T..
 2360 0000550e 21170000 2b5bf711 0000560e  ..U.!...+[....V.
 2370 e8170000 2b5cf711 0000570e 64080000  ....+\....W.d...
 2380 2b5ff711 0000580e 86070000 2b61f711  +_....X.....+a..
 2390 0000590e f9030000 2b63f711 00005a0e  ..Y.....+c....Z.
 23a0 6c0c0000 2b65f711 00005b0e 1d170000  l...+e....[.....
 23b0 2b6cf711 00005c0e e4170000 2b6df711  +l....\.....+m..
 23c0 00005d00 472d1400 002b7af1 110000de  ..].G-...+z.....
 23d0 23000010 8a110000 10f51400 00004acf  #.............J.
 23e0 0000002b 7de92300 003a0897 2200003f  ...+}.#..:.."..?
 23f0 f1110000 ff230000 401a1100 00010044  .....#..@......D
 2400 12060000 2c9fef23 00004446 1700002c  ....,..#..DF...,
 2410 a08a1100 00440805 00002ca1 ac110000  .....D....,.....
 2420 44140600 002ca6ef 23000044 48170000  D....,..#..DH...
 2430 2cae8a11 0000440a 0500002c afac1100  ,.....D....,....
 2440 00432611 00002c18 018a1100 001b8e0f  .C&...,.........
 2450 00002d20 8a110000 3c082e3b 72070000  ..- ....<..;r...
 2460 7d240000 0ecb1300 002e3c8a 11000000  }$........<.....
 2470 5372656d 002e3d8a 11000004 001b7307  Srem..=.......s.
 2480 00002e3e 58240000 3c102e43 3c0b0000  ...>X$..<..C<...
 2490 ad240000 0ecb1300 002e44ac 11000000  .$........D.....
 24a0 5372656d 002e45ac 11000008 001b3d0b  Srem..E.......=.
 24b0 00002e46 88240000 3c102e4d f4050000  ...F.$..<..M....
 24c0 dd240000 0ecb1300 002e4e78 20000000  .$........Nx ...
 24d0 5372656d 002e4f78 20000008 001bf505  Srem..Ox .......
 24e0 00002e50 b8240000 18470100 002eb202  ...P.$...G......
 24f0 f4240000 3a08fa24 0000548a 1100000e  .$..:..$..T.....
 2500 25000010 f1170000 10f11700 0000484d  %.............HM
 2510 1600002e dd018a11 00002425 00001024  ..........$%...$
 2520 25000000 3a082a25 00005525 22010000  %...:.*%..U%"...
 2530 2ee20122 0100008a 11000045 25000010  ...".......E%...
 2540 24250000 0047b202 00002e65 2a1e0000  $%...G.....e*...
 2550 5a250000 10f51400 00004776 0100002e  Z%........Gv....
 2560 688a1100 006f2500 0010f514 00000047  h....o%........G
 2570 7b010000 2e6bac11 00008425 000010f5  {....k.....%....
 2580 14000000 48bb0f00 002ebe02 ef110000  ....H...........
 2590 ae250000 10f11700 0010f117 0000100f  .%..............
 25a0 11000010 0f110000 10e82400 00005664  ..........$...Vd
 25b0 6976002e de027d24 0000c925 0000108a  iv....}$...%....
 25c0 11000010 8a110000 0048a70a 00002e04  .........H......
 25d0 02f11100 00df2500 0010f514 00000048  ......%........H
 25e0 c2000000 2ee002ad 240000fa 25000010  ........$...%...
 25f0 ac110000 10ac1100 000048fc 1400002e  ..........H.....
 2600 24038a11 00001526 000010f5 14000010  $......&........
 2610 0f110000 00488d17 00002e2f 030f1100  .....H...../....
 2620 00352600 00105719 000010f5 14000010  .5&...W.........
 2630 0f110000 00487a0d 00002e27 038a1100  .....Hz....'....
 2640 00552600 00105719 000010f5 14000010  .U&...W.........
 2650 0f110000 00469b10 00002ec8 02762600  .....F.......v&.
 2660 0010ef11 0000100f 11000010 0f110000  ................
 2670 10e82400 00005725 0100002e f9018826  ..$...W%.......&
 2680 0000108a 11000000 49050600 002e5201  ........I.....R.
 2690 8a110000 46040600 002e5401 a6260000  ....F.....T..&..
 26a0 10341100 00004752 1500002e 752a1e00  .4....GR....u*..
 26b0 00c02600 0010f514 000010c0 26000000  ..&.........&...
 26c0 3a08f111 00004786 1500002e 8bac1100  :.....G.........
 26d0 00e52600 0010f514 000010c0 26000010  ..&.........&...
 26e0 8a110000 00472809 00002e8f 1a110000  .....G(.........
 26f0 04270000 10f51400 0010c026 0000108a  .'.........&....
 2700 11000000 482c0500 002e9a02 8a110000  ....H,..........
 2710 1a270000 10f51400 0000488e 0b00002e  .'........H.....
 2720 32030f11 00003a27 000010f1 11000010  2.....:'........
 2730 9f190000 100f1100 000048d7 0300002e  ..........H.....
 2740 2b038a11 00005527 000010f1 11000010  +.....U'........
 2750 5d190000 0048c100 00002ee4 02dd2400  ]....H........$.
 2760 00702700 00107820 00001078 20000000  .p'...x ...x ...
 2770 47aa0100 002e7078 20000085 27000010  G.....px ...'...
 2780 f5140000 0047fe00 00002ea3 78200000  .....G......x ..
 2790 a4270000 10f51400 0010c026 0000108a  .'.........&....
 27a0 11000000 47eb0400 002ea89f 200000c3  ....G....... ...
 27b0 27000010 f5140000 10c02600 00108a11  '.........&.....
 27c0 00000047 65150000 2e7b521e 0000dd27  ...Ge....{R....'
 27d0 000010f5 14000010 c0260000 0047eb00  .........&...G..
 27e0 00002e7e 51200000 f7270000 10f51400  ...~Q ...'......
 27f0 0010c026 00000044 af090000 2f2df111  ...&...D..../-..
 2800 00004480 0300002f 2ef11100 003a08bf  ..D..../.....:..
 2810 0c00001b 60050000 30261a11 00001b3f  ....`...0&.....?
 2820 08000031 30292800 003a0885 11000047  ...10)(..:.....G
 2830 dc190000 309f8a11 00004928 000010ea  ....0.....I(....
 2840 18000010 13280000 00471104 00003137  .....(...G....17
 2850 ea180000 63280000 10ea1800 00101e28  ....c(.........(
 2860 00000047 13040000 31341e28 00007828  ...G....14.(..x(
 2870 000010f5 14000000 47de1900 00309b13  ........G....0..
 2880 2800008d 28000010 f5140000 00585f0e  (...(........X_.
 2890 00000903 841c7400 00000000 2a010429  ......t.....*..)
 28a0 00000059 6c6c7500 01059f20 00005a4e  ...Yllu.... ..ZN
 28b0 00010691 11000009 03541240 00000000  .........T.@....
 28c0 005a6d6f 64000107 91110000 09035812  .Zmod.........X.
 28d0 40000000 00005ba4 19000001 088a1100  @.....[.........
 28e0 00090380 20600000 0000005c 6e000108  .... `.....\n...
 28f0 8a110000 09038420 60000000 00005c6d  ....... `.....\m
 2900 0001088a 11000009 03882060 00000000  .......... `....
 2910 005c5100 01088a11 00000903 8c206000  .\Q.......... `.
 2920 00000000 5d0a1800 00800201 096a2900  ....]........j).
 2930 00537000 010a6a29 00000011 35190000  .Sp...j)....5...
 2940 010b1305 00004e29 00005429 0000097a  ......N)..T)...z
 2950 29000000 5e990700 00011169 04000063  )...^......i...c
 2960 29000009 7a290000 00003fa3 2800007a  )...z)....?.(..z
 2970 29000040 1a110000 4f003a08 24290000  )..@....O.:.$)..
 2980 0a7a2900 003f2429 00009629 00005f1a  .z)..?$)...).._.
 2990 110000f3 03005c73 00011485 29000009  ......\s....)...
 29a0 03a02060 00000000 005c6600 01148529  .. `.....\f....)
 29b0 00000903 a0026a00 00000000 5c6e7400  ......j.....\nt.
 29c0 01142429 00000903 a0e47300 00000000  ..$)......s.....
 29d0 5c743100 01142429 00000903 20e77300  \t1...$).... .s.
 29e0 00000000 5c743200 01142429 00000903  ....\t2...$)....
 29f0 a0e97300 00000000 5c763100 01142429  ..s.....\v1...$)
 2a00 00000903 20ec7300 00000000 5c763200  .... .s.....\v2.
 2a10 01142429 00000903 a0ee7300 00000000  ..$)......s.....
 2a20 5c670001 14242900 00090320 f1730000  \g...$).... .s..
 2a30 0000005c 63310001 14242900 000903a0  ...\c1...$).....
 2a40 f3730000 0000005c 63320001 14242900  .s.....\c2...$).
 2a50 00090320 f6730000 0000003f 24290000  ... .s.....?$)..
 2a60 712a0000 401a1100 0001401a 11000003  q*..@.....@.....
 2a70 005c7175 65000114 5b2a0000 0903a0f8  .\que...[*......
 2a80 73000000 00003f8a 11000097 2a00005f  s.....?.....*.._
 2a90 1a110000 f303005c 62616300 0115862a  .......\bac....*
 2aa0 00000903 a00c7400 00000000 5c726574  ......t.....\ret
 2ab0 0001158a 11000009 03701c74 00000000  .........p.t....
 2ac0 005c6474 0001158a 11000009 03741c74  .\dt.........t.t
 2ad0 00000000 005c6375 72000115 8a110000  .....\cur.......
 2ae0 0903781c 74000000 00005c74 6f740001  ..x.t.....\tot..
 2af0 158a1100 0009037c 1c740000 0000005c  .......|.t.....\
 2b00 616e7300 01158a11 00000903 801c7400  ans...........t.
 2b10 00000000 60d71700 00ef1100 00613d0c  ....`........a=.
 2b20 00006c05 00000061 2a070000 e2050000  ..l....a*.......
 2b30 01620d08 0000bf0e 00008080 80807863  .b............xc
 2b40 64000000 ca0e0000 ffffff7f 61f60900  d...........a...
 2b50 00710f00 002664b7 020000b3 0f000034  .q...&d........4
 2b60 0164ab08 0000f50f 00004413 61fd0d00  .d........D.a...
 2b70 00371000 0040612f 12000063 1000007f  .7...@a/...c....
 2b80 628f0d00 009a1000 0080807e 64c20500  b..........~d...
 2b90 00a51000 00ff7f62 750e0000 d8100000  .......bu.......
 2ba0 80808080 80808080 807f65df 110000e3  ..........e.....
 2bb0 100000ff ffffffff ffff7f66 95190000  ...........f....
 2bc0 c5104000 00000000 15000000 00000000  ..@.............
 2bd0 019c6750 11000087 10400000 0000003e  ..gP.....@.....>
 2be0 00000000 00000001 9c0a2c00 0068b70c  ..........,..h..
 2bf0 0000015a 8a110000 02916c68 ae0a0000  ...Z......lh....
 2c00 015a8a11 00000291 680069f4 03000001  .Z......h.i.....
 2c10 228a1100 00050940 00000000 00820700  "......@........
 2c20 00000000 00019c2b 2d00006a cb094000  .......+-..j..@.
 2c30 00000000 dd050000 00000000 cf2c0000  .............,..
 2c40 5a690001 298a1100 0002916c 6b030a40  Zi..)......lk..@
 2c50 00000000 009c0500 00000000 005a6a00  .............Zj.
 2c60 012d8a11 00000291 686b190a 40000000  .-......hk..@...
 2c70 00007d05 00000000 00005a66 3100012e  ..}.......Zf1...
 2c80 cf200000 0291675a 66320001 2ecf2000  . ....gZf2.... .
 2c90 00029166 5a6c3100 012ecf20 00000291  ...fZl1.... ....
 2ca0 655a6c32 00012ecf 20000002 91646b29  eZl2.... ....dk)
 2cb0 0a400000 000000fd 03000000 0000005a  .@.............Z
 2cc0 6b00012f 8a110000 02916000 0000006b  k../......`....k
 2cd0 a80f4000 00000000 bc000000 00000000  ..@.............
 2ce0 5a6a0001 4e8a1100 0002915c 6bbe0f40  Zj..N......\k..@
 2cf0 00000000 009d0000 00000000 005a6631  .............Zf1
 2d00 00014fcf 20000002 915b6bc2 0f400000  ..O. ....[k..@..
 2d10 00000087 00000000 0000005a 6b000150  ...........Zk..P
 2d20 8a110000 02915400 0000006c 64040000  ......T....ld...
 2d30 0116c30f 00005707 40000000 0000ae01  ......W.@.......
 2d40 00000000 0000019c cd2d0000 6a830740  .........-..j..@
 2d50 00000000 00560000 00000000 006e2d00  .....V.......n-.
 2d60 005a6900 01198a11 00000291 6c006aed  .Zi.........l.j.
 2d70 07400000 0000005f 00000000 00000090  .@....._........
 2d80 2d00005a 6a00011b 8a110000 02916800  -..Zj.........h.
 2d90 6b4c0840 00000000 00b60000 00000000  kL.@............
 2da0 005a6900 011c8a11 00000291 646b8408  .Zi.........dk..
 2db0 40000000 00007500 00000000 00005a6a  @.....u.......Zj
 2dc0 00011e8a 11000002 91600000 006d5429  .........`...mT)
 2dd0 0000f02d 00008a11 40000000 00003500  ...-....@.....5.
 2de0 00000000 0000019c f02d0000 1b2e0000  .........-......
 2df0 6e5c0b00 00802900 00029158 6b921140  n\....)....Xk..@
 2e00 00000000 002a0000 00000000 005a6900  .....*.......Zi.
 2e10 01128a11 00000291 6c00006f 3b290000  ........l..o;)..
 2e20 3a2e0000 da104000 00000000 af000000  :.....@.........
 2e30 00000000 019c3a2e 00006e5c 0b000080  ......:...n\....
 2e40 29000002 91585a69 00010df7 11000002  )....XZi........
 2e50 916f6b1a 11400000 0000006c 00000000  .ok..@.....l....
 2e60 0000005a 6a00010f 8a110000 02916800  ...Zj.........h.
 2e70 0000                                 ..              
Contents of section .debug_abbrev:
 0000 01110125 0e130b03 0e1b0e55 17110110  ...%.......U....
 0010 17000002 39010308 3a0b3b0b 01130000  ....9...:.;.....
 0020 03390003 0e3a0b3b 05000004 3a003a0b  .9...:.;....:.:.
 0030 3b051813 00000508 003a0b3b 0b181300  ;........:.;....
 0040 00060800 3a0b3b05 18130000 07130103  ....:.;.........
 0050 0e0b0b3a 0b3b0b01 13000008 2e013f19  ...:.;........?.
 0060 030e3a0b 3b0b6e0e 3c196319 8b010b64  ..:.;.n.<.c....d
 0070 13000009 05004913 34190000 0a260049  ......I.4....&.I
 0080 1300000b 3400030e 3a0b3b0b 6e0e4913  ....4...:.;.n.I.
 0090 3f193c19 00000c39 01030e3a 0b3b0b01  ?.<....9...:.;..
 00a0 1300000d 0201030e 0b0b3a0b 3b0b0113  ..........:.;...
 00b0 00000e0d 00030e3a 0b3b0b49 13380b00  .......:.;.I.8..
 00c0 000f2e01 3f19030e 3a0b3b0b 6e0e3c19  ....?...:.;.n.<.
 00d0 63196413 01130000 10050049 13000011  c.d........I....
 00e0 2e013f19 030e3a0b 3b0b6e0e 3c196413  ..?...:.;.n.<.d.
 00f0 01130000 122e013f 19030e3a 0b3b0b6e  .......?...:.;.n
 0100 0e49133c 19641301 13000013 2e013f19  .I.<.d........?.
 0110 030e3a0b 3b0b6e0e 320b3c19 64130113  ..:.;.n.2.<.d...
 0120 0000142e 013f1903 0e3a0b3b 0b6e0e49  .....?...:.;.n.I
 0130 13320b3c 19641301 13000015 2e013f19  .2.<.d........?.
 0140 030e3a0b 3b0b6e0e 4913320b 3c196319  ..:.;.n.I.2.<.c.
 0150 64130113 0000162e 013f1903 0e3a0b3b  d........?...:.;
 0160 0b6e0e49 13320b3c 19641300 00172e01  .n.I.2.<.d......
 0170 3f19030e 3a0b3b0b 6e0e8701 193c1901  ?...:.;.n....<..
 0180 13000018 1600030e 3a0b3b05 49130000  ........:.;.I...
 0190 19020003 0e3c1900 001a0d00 030e3a0b  .....<........:.
 01a0 3b0b4913 3f193c19 6c190000 1b160003  ;.I.?.<.l.......
 01b0 0e3a0b3b 0b491300 001c2f00 03084913  .:.;.I..../...I.
 01c0 00001d30 00030849 131c0a00 001e0401  ...0...I........
 01d0 3e0b0b0b 49133a0b 3b0b0113 00001f28  >...I.:.;......(
 01e0 00030e1c 0b000020 3400030e 3a0b3b0b  ....... 4...:.;.
 01f0 49133c19 1c0a6c19 00002139 00030e3a  I.<...l...!9...:
 0200 0b3b0b00 00221301 030e0b0b 3a0b3b05  .;..."......:.;.
 0210 01130000 232e013f 19030e3a 0b3b056e  ....#..?...:.;.n
 0220 0e3c1901 13000024 2e013f19 03083a0b  .<.....$..?...:.
 0230 3b056e0e 49133c19 01130000 252e013f  ;.n.I.<.....%..?
 0240 19030e3a 0b3b056e 0e49133c 19011300  ...:.;.n.I.<....
 0250 00262e00 3f190308 3a0b3b05 6e0e4913  .&..?...:.;.n.I.
 0260 3c190000 272e013f 19030e3a 0b3b056e  <...'..?...:.;.n
 0270 0e49133c 19000028 3901030e 3a0b3b05  .I.<...(9...:.;.
 0280 01130000 29390003 083a0b3b 0b00002a  ....)9...:.;...*
 0290 3a003a0b 3b0b1813 00002b02 01030e3c  :.:.;.....+....<
 02a0 19011300 002c0201 030e0b0b 3a0b3b05  .....,......:.;.
 02b0 320b0000 2d0d0003 0e3a0b3b 0549133f  2...-....:.;.I.?
 02c0 193c1900 002e2e01 3f19030e 3a0b3b05  .<......?...:.;.
 02d0 6e0e320b 3c196413 01130000 2f2e013f  n.2.<.d...../..?
 02e0 19030e3a 0b3b056e 0e320b3c 19641300  ...:.;.n.2.<.d..
 02f0 00302f00 030e4913 0000312f 00030e49  .0/...I...1/...I
 0300 131e1900 00323400 03083a0b 3b0b6e0e  .....24...:.;.n.
 0310 49133f19 3c190000 33340003 0e3a0b3b  I.?.<...34...:.;
 0320 0b49133c 19000034 0d00030e 3a0b3b0b  .I.<...4....:.;.
 0330 49133f19 3c190000 352e013f 1903083a  I.?.<...5..?...:
 0340 0b3b0b6e 0e49133c 19011300 00361301  .;.n.I.<.....6..
 0350 030e0b0b 3a0b3b0b 00003724 000b0b3e  ....:.;...7$...>
 0360 0b030e00 00382400 0b0b3e0b 03080000  .....8$...>.....
 0370 390f000b 0b00003a 0f000b0b 49130000  9......:....I...
 0380 3b0d0003 0e3a0b3b 05491338 0b00003c  ;....:.;.I.8...<
 0390 13010b0b 3a0b3b0b 6e0e0113 00003d17  ....:.;.n.....=.
 03a0 010b0b3a 0b3b0b01 1300003e 0d00030e  ...:.;.....>....
 03b0 3a0b3b0b 49130000 3f010149 13011300  :.;.I...?..I....
 03c0 00402100 49132f0b 00004116 00030e3a  .@!.I./...A....:
 03d0 0b3b0b00 00421300 030e3c19 00004334  .;...B....<...C4
 03e0 00030e3a 0b3b0549 133f193c 19000044  ...:.;.I.?.<...D
 03f0 3400030e 3a0b3b0b 49133f19 3c190000  4...:.;.I.?.<...
 0400 45210000 00462e01 3f19030e 3a0b3b05  E!...F..?...:.;.
 0410 3c190113 0000472e 013f1903 0e3a0b3b  <.....G..?...:.;
 0420 0b49133c 19011300 00482e01 3f19030e  .I.<.....H..?...
 0430 3a0b3b05 49133c19 01130000 492e003f  :.;.I.<.....I..?
 0440 19030e3a 0b3b0549 133c1900 004a2e00  ...:.;.I.<...J..
 0450 3f19030e 3a0b3b0b 49133c19 00004b2e  ?...:.;.I.<...K.
 0460 013f1903 0e3a0b3b 0b6e0e49 133c1901  .?...:.;.n.I.<..
 0470 1300004c 26000000 4d180000 004e1301  ...L&...M....N..
 0480 03080b0b 3a0b3b0b 01130000 4f3b0003  ....:.;.....O;..
 0490 0e000050 10000b0b 49130000 5142000b  ...P....I...QB..
 04a0 0b491300 00523400 47130000 530d0003  .I...R4.G...S...
 04b0 083a0b3b 0b491338 0b000054 15014913  .:.;.I.8...T..I.
 04c0 01130000 55150000 00562e01 3f190308  ....U....V..?...
 04d0 3a0b3b05 49133c19 01130000 572e013f  :.;.I.<.....W..?
 04e0 19030e3a 0b3b0587 01193c19 01130000  ...:.;....<.....
 04f0 58340047 13021800 00591600 03083a0b  X4.G.....Y....:.
 0500 3b0b4913 00005a34 0003083a 0b3b0b49  ;.I...Z4...:.;.I
 0510 13021800 005b3400 030e3a0b 3b0b4913  .....[4...:.;.I.
 0520 3f190218 00005c34 0003083a 0b3b0b49  ?.....\4...:.;.I
 0530 133f1902 1800005d 1301030e 0b053a0b  .?.....]......:.
 0540 3b0b0113 00005e2e 013f1903 0e3a0b3b  ;.....^..?...:.;
 0550 0b6e0e3c 19641300 005f2100 49132f05  .n.<.d..._!.I./.
 0560 00006034 00030e49 133f1934 193c1900  ..`4...I.?.4.<..
 0570 00613400 6e0e4713 1c0b0000 6234006e  .a4.n.G.....b4.n
 0580 0e47131c 0d000063 34006e0e 47131c06  .G.....c4.n.G...
 0590 00006434 006e0e47 131c0500 00653400  ..d4.n.G.....e4.
 05a0 6e0e4713 1c070000 662e0003 0e341911  n.G.....f....4..
 05b0 01120740 18964219 0000672e 01030e34  ...@..B...g....4
 05c0 19110112 07401896 42190113 00006805  .....@..B.....h.
 05d0 00030e3a 0b3b0b49 13021800 00692e01  ...:.;.I.....i..
 05e0 3f19030e 3a0b3b0b 49131101 12074018  ?...:.;.I.....@.
 05f0 96421901 1300006a 0b011101 12070113  .B.....j........
 0600 00006b0b 01110112 0700006c 2e013f19  ..k........l..?.
 0610 030e3a0b 3b0b6e0e 11011207 40189642  ..:.;.n.....@..B
 0620 19011300 006d2e01 47136413 11011207  .....m..G.d.....
 0630 40186413 97421901 1300006e 0500030e  @.d..B.....n....
 0640 49133419 02180000 6f2e0147 13641311  I.4.....o..G.d..
 0650 01120740 18641396 42190000 00        ...@.d..B....   
Contents of section .debug_line:
 0000 8c050000 0200b003 00000101 fb0e0d00  ................
 0010 01010101 00000001 0000012f 686f6d65  .........../home
 0020 2f7a6861 6e677a69 73752f73 6f757263  /zhangzisu/sourc
 0030 6573002f 7573722f 696e636c 7564652f  es./usr/include/
 0040 632b2b2f 37002f75 73722f69 6e636c75  c++/7./usr/inclu
 0050 64652f63 2b2b2f37 2f626974 73002f75  de/c++/7/bits./u
 0060 73722f69 6e636c75 64652f63 2b2b2f37  sr/include/c++/7
 0070 2f783836 5f36342d 72656468 61742d6c  /x86_64-redhat-l
 0080 696e7578 2f626974 73002f75 73722f69  inux/bits./usr/i
 0090 6e636c75 64652f63 2b2b2f37 2f646562  nclude/c++/7/deb
 00a0 7567002f 7573722f 696e636c 7564652f  ug./usr/include/
 00b0 632b2b2f 372f6578 74002f75 73722f6c  c++/7/ext./usr/l
 00c0 69622f67 63632f78 38365f36 342d7265  ib/gcc/x86_64-re
 00d0 64686174 2d6c696e 75782f37 2f696e63  dhat-linux/7/inc
 00e0 6c756465 002f7573 722f696e 636c7564  lude./usr/includ
 00f0 652f6269 7473002f 7573722f 696e636c  e/bits./usr/incl
 0100 7564652f 62697473 2f747970 6573002f  ude/bits/types./
 0110 7573722f 696e636c 75646500 00746d70  usr/include..tmp
 0120 2e637070 00010000 696f7374 7265616d  .cpp....iostream
 0130 00020000 63737464 696f0002 00006373  ....cstdio....cs
 0140 7472696e 67000200 00637763 68617200  tring....cwchar.
 0150 0200006e 65770002 00006578 63657074  ...new....except
 0160 696f6e5f 7074722e 68000300 00747970  ion_ptr.h....typ
 0170 655f7472 61697473 00020000 632b2b63  e_traits....c++c
 0180 6f6e6669 672e6800 04000063 70705f74  onfig.h....cpp_t
 0190 7970655f 74726169 74732e68 00030000  ype_traits.h....
 01a0 73746c5f 70616972 2e680003 00006465  stl_pair.h....de
 01b0 6275672e 68000500 00636861 725f7472  bug.h....char_tr
 01c0 61697473 2e680003 00006373 7464696e  aits.h....cstdin
 01d0 74000200 00636c6f 63616c65 00020000  t....clocale....
 01e0 63737464 6c696200 02000062 61736963  cstdlib....basic
 01f0 5f737472 696e672e 68000300 00737973  _string.h....sys
 0200 74656d5f 6572726f 72000200 00696f73  tem_error....ios
 0210 5f626173 652e6800 03000063 77637479  _base.h....cwcty
 0220 70650002 0000696f 73667764 00020000  pe....iosfwd....
 0230 70726564 6566696e 65645f6f 70732e68  predefined_ops.h
 0240 00030000 6e65775f 616c6c6f 6361746f  ....new_allocato
 0250 722e6800 0600006e 756d6572 69635f74  r.h....numeric_t
 0260 72616974 732e6800 06000073 74646465  raits.h....stdde
 0270 662e6800 07000074 79706573 2e680008  f.h....types.h..
 0280 00005f5f 46494c45 2e680009 00006c69  ..__FILE.h....li
 0290 62696f2e 68000a00 0046494c 452e6800  bio.h....FILE.h.
 02a0 0900005f 5f6d6273 74617465 5f742e68  ...__mbstate_t.h
 02b0 00090000 5f475f63 6f6e6669 672e6800  ...._G_config.h.
 02c0 0a00003c 6275696c 742d696e 3e000000  ...<built-in>...
 02d0 00737464 696f2e68 000a0000 7379735f  .stdio.h....sys_
 02e0 6572726c 6973742e 68000800 00737472  errlist.h....str
 02f0 696e672e 68000a00 0077696e 745f742e  ing.h....wint_t.
 0300 68000900 006d6273 74617465 5f742e68  h....mbstate_t.h
 0310 00090000 77636861 722e6800 0a000073  ....wchar.h....s
 0320 74727563 745f746d 2e680009 00007374  truct_tm.h....st
 0330 64696e74 2d696e74 6e2e6800 08000073  dint-intn.h....s
 0340 7464696e 742d7569 6e746e2e 68000800  tdint-uintn.h...
 0350 00737464 696e742e 68000a00 006c6f63  .stdint.h....loc
 0360 616c652e 68000a00 0074696d 652e6800  ale.h....time.h.
 0370 0a000061 746f6d69 635f776f 72642e68  ...atomic_word.h
 0380 00040000 7374646c 69622e68 000a0000  ....stdlib.h....
 0390 6572726e 6f2e6800 0a000077 63747970  errno.h....wctyp
 03a0 652d7763 6861722e 68000800 00776374  e-wchar.h....wct
 03b0 7970652e 68000a00 00000009 02da1040  ype.h..........@
 03c0 00000000 00030a01 bb085900 02040283  ..........Y.....
 03d0 00020401 06ba069f 00020403 06740002  .............t..
 03e0 0402ac06 025a1302 03000101 0009028a  .....Z..........
 03f0 11400000 00000003 10018300 02040306  .@..............
 0400 74000204 02ac0608 75020300 01010009  t.......u.......
 0410 02570740 00000000 00031501 8308919f  .W.@............
 0420 00020403 06740002 0402ac06 02441308  .....t.......D..
 0430 3d000204 03067400 020402ac 06024d13  =.....t.......M.
 0440 00020401 067406e5 02221300 02040306  .....t..."......
 0450 74000204 0206ad00 02040202 5d110002  t...........]...
 0460 04026495 3d8308c9 5908ad9f 02221302  ..d.=...Y...."..
 0470 53130002 04010690 069fbbe5 9f000204  S...............
 0480 01067406 e5f30002 04010674 06e50002  ..t........t....
 0490 040106ac 06e5025c 13000204 01066606  .......\......f.
 04a0 08910002 0401069e 00020401 0608915a  ...............Z
 04b0 00020401 06660602 4b130002 04010666  .....f..K......f
 04c0 06024813 00020401 06660002 0402026f  ..H......f.....o
 04d0 12064b00 02040106 66000204 02026f12  ..K.....f.....o.
 04e0 064b0002 0401069e 06029201 13000204  .K..............
 04f0 01069e06 02920113 00020401 06660002  .............f..
 0500 040208d6 064b0002 04010666 00020402  .....K.....f....
 0510 08d60603 77660002 04021b91 030f209f  ....wf........ .
 0520 67023f14 0261149f 67023f14 02611400  g.?..a..g.?..a..
 0530 02040106 ac000204 02060362 58000204  ...........bX...
 0540 028c0325 90000204 01067406 e54b0002  ...%......t..K..
 0550 04010674 06ad0269 134b0002 04022b00  ...t...i.K....+.
 0560 0204026c 00020402 03780820 030a9003  ...l.....x. ....
 0570 4d086603 355874d6 00020401 06660402  M.f.5Xt......f..
 0580 06037090 04010310 08c83c4a 08000101  ..p.......<J....
Contents of section .debug_str:
 0000 7e657863 65707469 6f6e5f70 74720066  ~exception_ptr.f
 0010 67657463 0073697a 655f7400 66676574  getc.size_t.fget
 0020 7300746d 5f686f75 72005f5f 76616c75  s.tm_hour.__valu
 0030 65005f5f 69735f69 6e746567 65723c66  e.__is_integer<f
 0040 6c6f6174 3e005f5f 6e756d65 7269635f  loat>.__numeric_
 0050 74726169 74735f69 6e746567 65723c69  traits_integer<i
 0060 6e743e00 5f5a4e39 5f5f676e 755f6378  nt>._ZN9__gnu_cx
 0070 7832345f 5f6e756d 65726963 5f747261  x24__numeric_tra
 0080 6974735f 696e7465 67657249 6945355f  its_integerIiE5_
 0090 5f6d6178 45005f49 4f5f325f 315f7374  _maxE._IO_2_1_st
 00a0 64657272 5f007569 6e745f66 61737436  derr_.uint_fast6
 00b0 345f7400 5f494f5f 73617665 5f656e64  4_t._IO_save_end
 00c0 006c6c64 69760077 63736373 706e006c  .lldiv.wcscspn.l
 00d0 6f63616c 65636f6e 76005f4d 5f616464  ocaleconv._M_add
 00e0 72656600 5f4d5f67 65740073 7472746f  ref._M_get.strto
 00f0 6c640039 5f475f66 706f735f 74007374  ld.9_G_fpos_t.st
 0100 72746f6c 6c005f49 4f5f7772 6974655f  rtoll._IO_write_
 0110 62617365 00746d70 6e616d00 5f6c6f63  base.tmpnam._loc
 0120 6b006174 5f717569 636b5f65 78697400  k.at_quick_exit.
 0130 696e745f 63757272 5f73796d 626f6c00  int_curr_symbol.
 0140 77637363 6872005f 5f636f6d 7061725f  wcschr.__compar_
 0150 666e5f74 005f5a53 74357763 65727200  fn_t._ZSt5wcerr.
 0160 5f494f5f 73617665 5f626173 65006d62  _IO_save_base.mb
 0170 72746f77 63006174 6f690061 746f6c00  rtowc.atoi.atol.
 0180 77637378 66726d00 5f5a4e53 74313163  wcsxfrm._ZNSt11c
 0190 6861725f 74726169 74734977 4534636f  har_traitsIwE4co
 01a0 70794550 77504b77 6d006174 6f6c6c00  pyEPwPKwm.atoll.
 01b0 696e745f 66726163 5f646967 69747300  int_frac_digits.
 01c0 5f5a4e53 7431355f 5f657863 65707469  _ZNSt15__excepti
 01d0 6f6e5f70 74723133 65786365 7074696f  on_ptr13exceptio
 01e0 6e5f7074 72433445 50760073 7472696e  n_ptrC4EPv.strin
 01f0 675f6c69 74657261 6c730066 67657470  g_literals.fgetp
 0200 6f73005f 5f706f73 005f6368 61696e00  os.__pos._chain.
 0210 77637363 6f6c6c00 636c6561 72657272  wcscoll.clearerr
 0220 005f5a4e 4b537431 37696e74 65677261  ._ZNKSt17integra
 0230 6c5f636f 6e737461 6e744962 4c623145  l_constantIbLb1E
 0240 45637662 4576005f 6375725f 636f6c75  EcvbEv._cur_colu
 0250 6d6e0075 696e745f 66617374 33325f74  mn.uint_fast32_t
 0260 00706f73 69746976 655f7369 676e005f  .positive_sign._
 0270 5f776368 005f5a4e 53743131 63686172  _wch._ZNSt11char
 0280 5f747261 69747349 6345346d 6f766545  _traitsIcE4moveE
 0290 5063504b 636d005f 5f75696e 74385f74  PcPKcm.__uint8_t
 02a0 00747970 655f696e 666f0073 7472746f  .type_info.strto
 02b0 6b006174 6f66005f 5a4e395f 5f676e75  k.atof._ZN9__gnu
 02c0 5f637878 32355f5f 6e756d65 7269635f  _cxx25__numeric_
 02d0 74726169 74735f66 6c6f6174 696e6749  traits_floatingI
 02e0 64453136 5f5f6d61 785f6578 706f6e65  dE16__max_expone
 02f0 6e743130 45005f73 79735f6e 65727200  nt10E._sys_nerr.
 0300 77637372 63687200 6d6f6e5f 64656369  wcsrchr.mon_deci
 0310 6d616c5f 706f696e 74005f5f 6e756d65  mal_point.__nume
 0320 7269635f 74726169 74735f66 6c6f6174  ric_traits_float
 0330 696e673c 6c6f6e67 20646f75 626c653e  ing<long double>
 0340 005f5a4e 53743135 5f5f6578 63657074  ._ZNSt15__except
 0350 696f6e5f 70747231 33657863 65707469  ion_ptr13excepti
 0360 6f6e5f70 74726153 45524b53 305f0074  on_ptraSERKS0_.t
 0370 6d5f6973 64737400 73747263 6f6c6c00  m_isdst.strcoll.
 0380 70726f67 72616d5f 696e766f 63617469  program_invocati
 0390 6f6e5f73 686f7274 5f6e616d 65006e6f  on_short_name.no
 03a0 7468726f 775f7400 73747263 6872005f  throw_t.strchr._
 03b0 5f6e756d 65726963 5f747261 6974735f  _numeric_traits_
 03c0 696e7465 6765723c 63686172 3e007677  integer<char>.vw
 03d0 7072696e 74660077 63746f6d 62005f5f  printf.wctomb.__
 03e0 64696769 74733130 005f494f 5f6d6172  digits10._IO_mar
 03f0 6b657200 6d61696e 00696e74 5f6e5f63  ker.main.int_n_c
 0400 735f7072 65636564 6573007e 496e6974  s_precedes.~Init
 0410 00746f77 63747261 6e73005f 5a4e5374  .towctrans._ZNSt
 0420 31316368 61725f74 72616974 73497745  11char_traitsIwE
 0430 32657145 524b7753 325f0063 6f707900  2eqERKwS2_.copy.
 0440 5f5a4e53 74313163 6861725f 74726169  _ZNSt11char_trai
 0450 74734963 45326c74 45524b63 53325f00  tsIcE2ltERKcS2_.
 0460 5f5f696f 696e6974 005f5a4e 36626974  __ioinit._ZN6bit
 0470 73657435 636c6561 72457600 6e756c6c  set5clearEv.null
 0480 7074725f 74005f53 5f73796e 6365645f  ptr_t._S_synced_
 0490 77697468 5f737464 696f005f 56616c75  with_stdio._Valu
 04a0 65005f5a 4e537431 31636861 725f7472  e._ZNSt11char_tr
 04b0 61697473 49774531 32746f5f 63686172  aitsIwE12to_char
 04c0 5f747970 6545524b 6a007569 6e745f6c  _typeERKj.uint_l
 04d0 65617374 36345f74 005f5a53 7434636c  east64_t._ZSt4cl
 04e0 6f670074 6d5f7964 61790073 7472746f  og.tm_yday.strto
 04f0 756c6c00 5f5a5374 3577636f 7574005f  ull._ZSt5wcout._
 0500 494f5f46 494c4500 5f5f7469 6d657a6f  IO_FILE.__timezo
 0510 6e65005f 5a4e3662 69747365 74347265  ne._ZN6bitset4re
 0520 61644576 0072656d 6f766500 73797374  adEv.remove.syst
 0530 656d0062 61736963 5f6f7374 7265616d  em.basic_ostream
 0540 3c636861 722c2073 74643a3a 63686172  <char, std::char
 0550 5f747261 6974733c 63686172 3e203e00  _traits<char> >.
 0560 77637479 70655f74 006f7065 7261746f  wctype_t.operato
 0570 723d0066 67657477 63006765 74776368  r=.fgetwc.getwch
 0580 61720066 67657477 7300756e 7369676e  ar.fgetws.unsign
 0590 65642063 68617200 5f5f696e 74313238  ed char.__int128
 05a0 20756e73 69676e65 64006663 6c6f7365   unsigned.fclose
 05b0 00776d65 6d636872 00636861 7231365f  .wmemchr.char16_
 05c0 74005f5a 4e395f5f 676e755f 63787832  t._ZN9__gnu_cxx2
 05d0 345f5f6e 756d6572 69635f74 72616974  4__numeric_trait
 05e0 735f696e 74656765 72497345 355f5f6d  s_integerIsE5__m
 05f0 61784500 376c6c64 69765f74 00776373  axE.7lldiv_t.wcs
 0600 636d7000 7372616e 64006e6f 745f656f  cmp.srand.not_eo
 0610 66005f5f 747a6e61 6d650077 63737062  f.__tzname.wcspb
 0620 726b0072 65746872 6f775f65 78636570  rk.rethrow_excep
 0630 74696f6e 005f494f 5f46494c 455f706c  tion._IO_FILE_pl
 0640 7573005f 5f69735f 7369676e 6564005f  us.__is_signed._
 0650 5a4e5374 31316368 61725f74 72616974  ZNSt11char_trait
 0660 73497745 33656f66 45760062 61736963  sIwE3eofEv.basic
 0670 5f6f7374 7265616d 3c776368 61725f74  _ostream<wchar_t
 0680 2c207374 643a3a63 6861725f 74726169  , std::char_trai
 0690 74733c77 63686172 5f743e20 3e006f70  ts<wchar_t> >.op
 06a0 65726174 6f722073 74643a3a 696e7465  erator std::inte
 06b0 6772616c 5f636f6e 7374616e 743c626f  gral_constant<bo
 06c0 6f6c2c20 66616c73 653e3a3a 76616c75  ol, false>::valu
 06d0 655f7479 7065005f 5a4e5374 31316368  e_type._ZNSt11ch
 06e0 61725f74 72616974 73497745 37636f6d  ar_traitsIwE7com
 06f0 70617265 45504b77 53325f6d 0075696e  pareEPKwS2_m.uin
 0700 745f6c65 61737433 325f7400 7763736e  t_least32_t.wcsn
 0710 636d7000 5f494f5f 6c6f636b 5f74005f  cmp._IO_lock_t._
 0720 5f75696e 7431365f 74005f5a 4e537431  _uint16_t._ZNSt1
 0730 37696e74 65677261 6c5f636f 6e737461  7integral_consta
 0740 6e744962 4c623145 45357661 6c756545  ntIbLb1EE5valueE
 0750 005f5a4e 53743869 6f735f62 61736534  ._ZNSt8ios_base4
 0760 496e6974 44344576 00776d65 6d6d6f76  InitD4Ev.wmemmov
 0770 65003564 69765f74 005f5f6d 696e0074  e.5div_t.__min.t
 0780 6d5f6d69 6e00696e 745f705f 7365705f  m_min.int_p_sep_
 0790 62795f73 70616365 00636c65 61720062  by_space.clear.b
 07a0 61736963 5f697374 7265616d 3c636861  asic_istream<cha
 07b0 722c2073 74643a3a 63686172 5f747261  r, std::char_tra
 07c0 6974733c 63686172 3e203e00 5f494f5f  its<char> >._IO_
 07d0 72656164 5f707472 006d6f6e 5f74686f  read_ptr.mon_tho
 07e0 7573616e 64735f73 65700075 6e676574  usands_sep.unget
 07f0 77630066 705f6f66 66736574 00667465  wc.fp_offset.fte
 0800 6c6c0070 74726469 66665f74 005f5a4e  ll.ptrdiff_t._ZN
 0810 395f5f67 6e755f63 78783234 5f5f6e75  9__gnu_cxx24__nu
 0820 6d657269 635f7472 61697473 5f696e74  meric_traits_int
 0830 65676572 49694535 5f5f6d69 6e450077  egerIiE5__minE.w
 0840 63747261 6e735f74 006d6272 6c656e00  ctrans_t.mbrlen.
 0850 73746469 6e006e65 67617469 76655f73  stdin.negative_s
 0860 69676e00 696e745f 705f6373 5f707265  ign.int_p_cs_pre
 0870 63656465 73005f5a 4e537431 31636861  cedes._ZNSt11cha
 0880 725f7472 61697473 49774536 61737369  r_traitsIwE6assi
 0890 676e4552 77524b77 005f6d61 726b6572  gnERwRKw._marker
 08a0 73007763 73746f75 6c6c005f 5a4e395f  s.wcstoull._ZN9_
 08b0 5f676e75 5f637878 32355f5f 6e756d65  _gnu_cxx25__nume
 08c0 7269635f 74726169 74735f66 6c6f6174  ric_traits_float
 08d0 696e6749 65453136 5f5f6d61 785f6578  ingIeE16__max_ex
 08e0 706f6e65 6e743130 4500636f 6d706172  ponent10E.compar
 08f0 65007763 73637079 005f4368 61725400  e.wcscpy._CharT.
 0900 76737770 72696e74 6600696e 74656772  vswprintf.integr
 0910 616c5f63 6f6e7374 616e743c 626f6f6c  al_constant<bool
 0920 2c207472 75653e00 73747274 6f756c00  , true>.strtoul.
 0930 6f706572 61746f72 20737464 3a3a696e  operator std::in
 0940 74656772 616c5f63 6f6e7374 616e743c  tegral_constant<
 0950 626f6f6c 2c207472 75653e3a 3a76616c  bool, true>::val
 0960 75655f74 79706500 776d656d 73657400  ue_type.wmemset.
 0970 5f5a4e53 7431355f 5f657863 65707469  _ZNSt15__excepti
 0980 6f6e5f70 74723133 65786365 7074696f  on_ptr13exceptio
 0990 6e5f7074 72347377 61704552 53305f00  n_ptr4swapERS0_.
 09a0 776f7374 7265616d 00667769 64650070  wostream.fwide.p
 09b0 726f6772 616d5f69 6e766f63 6174696f  rogram_invocatio
 09c0 6e5f6e61 6d65005f 5f637861 5f657863  n_name.__cxa_exc
 09d0 65707469 6f6e5f74 79706500 7763736e  eption_type.wcsn
 09e0 63707900 5f756e75 73656432 00707574  cpy._unused2.put
 09f0 77636861 72005f5a 4e395f5f 676e755f  wchar._ZN9__gnu_
 0a00 63787832 355f5f6e 756d6572 69635f74  cxx25__numeric_t
 0a10 72616974 735f666c 6f617469 6e674966  raits_floatingIf
 0a20 4531365f 5f6d6178 5f657870 6f6e656e  E16__max_exponen
 0a30 74313045 005f5a4e 53743135 5f5f6578  t10E._ZNSt15__ex
 0a40 63657074 696f6e5f 70747231 33657863  ception_ptr13exc
 0a50 65707469 6f6e5f70 74726153 454f5330  eption_ptraSEOS0
 0a60 5f00776d 656d636d 70005f5a 53743577  _.wmemcmp._ZSt5w
 0a70 636c6f67 005f5a4e 53743131 63686172  clog._ZNSt11char
 0a80 5f747261 69747349 63453463 6f707945  _traitsIcE4copyE
 0a90 5063504b 636d0066 696e6400 5f5f7569  PcPKcm.find.__ui
 0aa0 6e743634 5f740067 6574656e 76005f5f  nt64_t.getenv.__
 0ab0 7072696f 72697479 0075696e 745f6c65  priority.uint_le
 0ac0 61737431 365f7400 5f494f5f 325f315f  ast16_t._IO_2_1_
 0ad0 73746469 6e5f005f 5a4e5374 31355f5f  stdin_._ZNSt15__
 0ae0 65786365 7074696f 6e5f7074 72313365  exception_ptr13e
 0af0 78636570 74696f6e 5f707472 43344576  xception_ptrC4Ev
 0b00 005f5a4e 53743131 63686172 5f747261  ._ZNSt11char_tra
 0b10 69747349 63453365 6f664576 005f4d5f  itsIcE3eofEv._M_
 0b20 72656c65 61736500 5f666c61 67733200  release._flags2.
 0b30 5f5f676e 755f6465 62756700 366c6469  __gnu_debug.6ldi
 0b40 765f7400 5f494f5f 72656164 5f626173  v_t._IO_read_bas
 0b50 65005f5a 53743463 65727200 74686973  e._ZSt4cerr.this
 0b60 00636861 7233325f 74005f5a 4e537431  .char32_t._ZNSt1
 0b70 31636861 725f7472 61697473 49774534  1char_traitsIwE4
 0b80 66696e64 45504b77 6d525331 5f007763  findEPKwmRS1_.wc
 0b90 73746f6d 62730074 6d5f676d 746f6666  stombs.tm_gmtoff
 0ba0 0075696e 74707472 5f740070 69656365  .uintptr_t.piece
 0bb0 77697365 5f636f6e 73747275 63745f74  wise_construct_t
 0bc0 0065715f 696e745f 74797065 005f5a4e  .eq_int_type._ZN
 0bd0 53743131 63686172 5f747261 69747349  St11char_traitsI
 0be0 7745366c 656e6774 6845504b 77005f5a  wE6lengthEPKw._Z
 0bf0 4e4b5374 31355f5f 65786365 7074696f  NKSt15__exceptio
 0c00 6e5f7074 72313365 78636570 74696f6e  n_ptr13exception
 0c10 5f707472 365f4d5f 67657445 76005f5f  _ptr6_M_getEv.__
 0c20 666c6f61 74313238 00737472 7866726d  float128.strxfrm
 0c30 005f6f6c 645f6f66 66736574 005f5a4e  ._old_offset._ZN
 0c40 53743137 696e7465 6772616c 5f636f6e  St17integral_con
 0c50 7374616e 7449624c 62304545 3576616c  stantIbLb0EE5val
 0c60 75654500 66736574 706f7300 696e745f  ueE.fsetpos.int_
 0c70 6e5f7365 705f6279 5f737061 6365005f  n_sep_by_space._
 0c80 54726169 74730076 66777072 696e7466  Traits.vfwprintf
 0c90 005f5a4e 4b537431 37696e74 65677261  ._ZNKSt17integra
 0ca0 6c5f636f 6e737461 6e744962 4c623045  l_constantIbLb0E
 0cb0 45637662 4576005f 5f696e69 7469616c  EcvbEv.__initial
 0cc0 697a655f 70005f5f 75696e74 33325f74  ize_p.__uint32_t
 0cd0 006c6f6e 67206c6f 6e672069 6e74005f  .long long int._
 0ce0 5f6d6178 5f657870 6f6e656e 74313000  _max_exponent10.
 0cf0 776d656d 63707900 746d5f6d 6f6e0073  wmemcpy.tm_mon.s
 0d00 74727263 6872005f 5a4e5374 31355f5f  trrchr._ZNSt15__
 0d10 65786365 7074696f 6e5f7074 72313365  exception_ptr13e
 0d20 78636570 74696f6e 5f707472 43344552  xception_ptrC4ER
 0d30 4b53305f 005f5f69 735f696e 74656765  KS0_.__is_intege
 0d40 723c6c6f 6e672064 6f75626c 653e0077  r<long double>.w
 0d50 6373746f 6c005f5a 4e537431 31636861  cstol._ZNSt11cha
 0d60 725f7472 61697473 49634534 66696e64  r_traitsIcE4find
 0d70 45504b63 6d525331 5f006d62 746f7763  EPKcmRS1_.mbtowc
 0d80 005f494f 5f777269 74655f65 6e64005f  ._IO_write_end._
 0d90 5a4e395f 5f676e75 5f637878 32345f5f  ZN9__gnu_cxx24__
 0da0 6e756d65 7269635f 74726169 74735f69  numeric_traits_i
 0db0 6e746567 65724973 45355f5f 6d696e45  ntegerIsE5__minE
 0dc0 00706965 63657769 73655f63 6f6e7374  .piecewise_const
 0dd0 72756374 00776374 6f62002f 686f6d65  ruct.wctob./home
 0de0 2f7a6861 6e677a69 73752f73 6f757263  /zhangzisu/sourc
 0df0 65730067 705f6f66 66736574 005f5a4e  es.gp_offset._ZN
 0e00 395f5f67 6e755f63 78783234 5f5f6e75  9__gnu_cxx24__nu
 0e10 6d657269 635f7472 61697473 5f696e74  meric_traits_int
 0e20 65676572 496d4538 5f5f6469 67697473  egerImE8__digits
 0e30 45007374 72657272 6f720066 6c6f6174  E.strerror.float
 0e40 00646563 6c747970 65286e75 6c6c7074  .decltype(nullpt
 0e50 7229005f 5a537434 636f7574 005f5f69  r)._ZSt4cout.__i
 0e60 6e746d61 785f7400 5f494f5f 6275665f  ntmax_t._IO_buf_
 0e70 62617365 005f5a4e 395f5f67 6e755f63  base._ZN9__gnu_c
 0e80 78783234 5f5f6e75 6d657269 635f7472  xx24__numeric_tr
 0e90 61697473 5f696e74 65676572 496c4535  aits_integerIlE5
 0ea0 5f5f6d69 6e450063 6861725f 74726169  __minE.char_trai
 0eb0 74733c63 6861723e 00706572 726f7200  ts<char>.perror.
 0ec0 77637373 706e006f 70657261 746f7220  wcsspn.operator 
 0ed0 626f6f6c 005f5a4e 53743131 63686172  bool._ZNSt11char
 0ee0 5f747261 69747349 63453131 65715f69  _traitsIcE11eq_i
 0ef0 6e745f74 79706545 524b6953 325f005f  nt_typeERKiS2_._
 0f00 5f706164 31005f5f 70616432 005f5f70  _pad1.__pad2.__p
 0f10 61643300 5f5f7061 6434005f 5f706164  ad3.__pad4.__pad
 0f20 35007365 74766275 66005f73 62756600  5.setvbuf._sbuf.
 0f30 5f5a4e53 74313163 6861725f 74726169  _ZNSt11char_trai
 0f40 74734963 45313274 6f5f6368 61725f74  tsIcE12to_char_t
 0f50 79706545 524b6900 5f535f72 6566636f  ypeERKi._S_refco
 0f60 756e7400 5f5a4e53 74313163 6861725f  unt._ZNSt11char_
 0f70 74726169 74734977 45313165 715f696e  traitsIwE11eq_in
 0f80 745f7479 70654552 4b6a5332 5f005f41  t_typeERKjS2_._A
 0f90 746f6d69 635f776f 7264006f 76657266  tomic_word.overf
 0fa0 6c6f775f 6172675f 61726561 0072656e  low_arg_area.ren
 0fb0 616d6500 5f666c61 67730062 73656172  ame._flags.bsear
 0fc0 6368005f 5a34696e 69747600 5f6d6f64  ch._Z4initv._mod
 0fd0 65007374 72706272 6b006765 74636861  e.strpbrk.getcha
 0fe0 72005f5a 4e537432 31706965 63657769  r._ZNSt21piecewi
 0ff0 73655f63 6f6e7374 72756374 5f744334  se_construct_tC4
 1000 4576005f 5f636f75 6e74005f 5f676e75  Ev.__count.__gnu
 1010 5f637878 005f5a4e 4b537431 37696e74  _cxx._ZNKSt17int
 1020 65677261 6c5f636f 6e737461 6e744962  egral_constantIb
 1030 4c623045 45636c45 76005f5a 4e537431  Lb0EEclEv._ZNSt1
 1040 31636861 725f7472 61697473 49774532  1char_traitsIwE2
 1050 6c744552 4b775332 5f007569 6e745f6c  ltERKwS2_.uint_l
 1060 65617374 385f7400 66656f66 005f5f75  east8_t.feof.__u
 1070 6e6b6e6f 776e5f5f 005f5a4e 53743131  nknown__._ZNSt11
 1080 63686172 5f747261 69747349 63453661  char_traitsIcE6a
 1090 73736967 6e455063 6d630071 736f7274  ssignEPcmc.qsort
 10a0 006c6f6e 6720646f 75626c65 005f5f6e  .long double.__n
 10b0 756d6572 69635f74 72616974 735f696e  umeric_traits_in
 10c0 74656765 723c6c6f 6e672069 6e743e00  teger<long int>.
 10d0 5f5f6e75 6d657269 635f7472 61697473  __numeric_traits
 10e0 5f666c6f 6174696e 673c646f 75626c65  _floating<double
 10f0 3e00746d 5f6d6461 79005f5f 77636862  >.tm_mday.__wchb
 1100 005f5a4e 4b537431 37696e74 65677261  ._ZNKSt17integra
 1110 6c5f636f 6e737461 6e744962 4c623145  l_constantIbLb1E
 1120 45636c45 76006765 74646174 655f6572  EclEv.getdate_er
 1130 72005f5f 696e7438 5f74005f 5f69735f  r.__int8_t.__is_
 1140 696e7465 6765723c 646f7562 6c653e00  integer<double>.
 1150 5f5f7374 61746963 5f696e69 7469616c  __static_initial
 1160 697a6174 696f6e5f 616e645f 64657374  ization_and_dest
 1170 72756374 696f6e5f 30005f5a 4e537431  ruction_0._ZNSt1
 1180 31636861 725f7472 61697473 49634537  1char_traitsIcE7
 1190 636f6d70 61726545 504b6353 325f6d00  compareEPKcS2_m.
 11a0 6c6f6e67 206c6f6e 6720756e 7369676e  long long unsign
 11b0 65642069 6e74005f 5a537437 6e6f7468  ed int._ZSt7noth
 11c0 726f7700 73776170 00726567 5f736176  row.swap.reg_sav
 11d0 655f6172 65610077 6373746f 6c64005f  e_area.wcstold._
 11e0 5a4e395f 5f676e75 5f637878 32345f5f  ZN9__gnu_cxx24__
 11f0 6e756d65 7269635f 74726169 74735f69  numeric_traits_i
 1200 6e746567 6572496c 45355f5f 6d617845  ntegerIlE5__maxE
 1210 006c656e 67746800 77637374 6f6c6c00  .length.wcstoll.
 1220 5f5f6f66 665f7400 77637373 7472005f  __off_t.wcsstr._
 1230 5a4e395f 5f676e75 5f637878 32345f5f  ZN9__gnu_cxx24__
 1240 6e756d65 7269635f 74726169 74735f69  numeric_traits_i
 1250 6e746567 65724963 45355f5f 6d617845  ntegerIcE5__maxE
 1260 005f5a4e 53743135 5f5f6578 63657074  ._ZNSt15__except
 1270 696f6e5f 70747231 33657863 65707469  ion_ptr13excepti
 1280 6f6e5f70 74724334 45446e00 5f5a5374  on_ptrC4EDn._ZSt
 1290 31377265 7468726f 775f6578 63657074  17rethrow_except
 12a0 696f6e4e 53743135 5f5f6578 63657074  ionNSt15__except
 12b0 696f6e5f 70747231 33657863 65707469  ion_ptr13excepti
 12c0 6f6e5f70 74724500 73657462 75660074  on_ptrE.setbuf.t
 12d0 6d5f7365 63007763 7372746f 6d627300  m_sec.wcsrtombs.
 12e0 746d5f77 64617900 5f5a4e53 74313163  tm_wday._ZNSt11c
 12f0 6861725f 74726169 74734963 45326571  har_traitsIcE2eq
 1300 45524b63 53325f00 6d627369 6e697400  ERKcS2_.mbsinit.
 1310 2f686f6d 652f7a68 616e677a 6973752f  /home/zhangzisu/
 1320 736f7572 6365732f 746d702e 63707000  sources/tmp.cpp.
 1330 6f706572 61746f72 2829005f 5f646967  operator().__dig
 1340 69747300 77637374 6f640077 6373746f  its.wcstod.wcsto
 1350 6600696e 74656772 616c5f63 6f6e7374  f.integral_const
 1360 616e743c 626f6f6c 2c206661 6c73653e  ant<bool, false>
 1370 00776373 746f6b00 5f5f6378 78313100  .wcstok.__cxx11.
 1380 474e5520 432b2b31 3420372e 332e3120  GNU C++14 7.3.1 
 1390 32303138 30333033 20285265 64204861  20180303 (Red Ha
 13a0 7420372e 332e312d 3529202d 6d74756e  t 7.3.1-5) -mtun
 13b0 653d6765 6e657269 63202d6d 61726368  e=generic -march
 13c0 3d783836 2d363420 2d670071 756f7400  =x86-64 -g.quot.
 13d0 5f5f4649 4c450077 69737472 65616d00  __FILE.wistream.
 13e0 62617369 635f6973 74726561 6d3c7763  basic_istream<wc
 13f0 6861725f 742c2073 74643a3a 63686172  har_t, std::char
 1400 5f747261 6974733c 77636861 725f743e  _traits<wchar_t>
 1410 203e005f 5f696e74 31365f74 005f494f   >.__int16_t._IO
 1420 5f626163 6b75705f 62617365 00736574  _backup_base.set
 1430 6c6f6361 6c65005f 73686f72 74627566  locale._shortbuf
 1440 005f494f 5f325f31 5f737464 6f75745f  ._IO_2_1_stdout_
 1450 0077696e 745f7400 5f5f696e 74313238  .wint_t.__int128
 1460 005f6e65 78740069 6f735f62 61736500  ._next.ios_base.
 1470 5f5f6f66 6636345f 74005f5a 4e4b5374  __off64_t._ZNKSt
 1480 31355f5f 65786365 7074696f 6e5f7074  15__exception_pt
 1490 72313365 78636570 74696f6e 5f707472  r13exception_ptr
 14a0 32305f5f 6378615f 65786365 7074696f  20__cxa_exceptio
 14b0 6e5f7479 70654576 00737472 73747200  n_typeEv.strstr.
 14c0 666f7065 6e005f5f 696e7433 325f7400  fopen.__int32_t.
 14d0 5f5a4e53 7438696f 735f6261 73653449  _ZNSt8ios_base4I
 14e0 6e697443 34457600 5f5f7377 61707061  nitC4Ev.__swappa
 14f0 626c655f 64657461 696c7300 6d626c65  ble_details.mble
 1500 6e007265 77696e64 005f494f 5f627566  n.rewind._IO_buf
 1510 5f656e64 005f5a4e 5374396e 6f746872  _end._ZNSt9nothr
 1520 6f775f74 43344576 00776373 6c656e00  ow_tC4Ev.wcslen.
 1530 5f5a4e53 74313163 6861725f 74726169  _ZNSt11char_trai
 1540 74734977 45376e6f 745f656f 6645524b  tsIwE7not_eofERK
 1550 6a007374 72746f64 00746f5f 696e745f  j.strtod.to_int_
 1560 74797065 00737472 746f6600 75696e74  type.strtof.uint
 1570 5f666173 74385f74 00746f5f 63686172  _fast8_t.to_char
 1580 5f747970 65007374 72746f6c 005f5f64  _type.strtol.__d
 1590 65627567 00666572 726f7200 63757272  ebug.ferror.curr
 15a0 656e6379 5f73796d 626f6c00 73746465  ency_symbol.stde
 15b0 72720073 686f7274 20696e74 005f4d5f  rr.short int._M_
 15c0 65786365 7074696f 6e5f6f62 6a656374  exception_object
 15d0 005f5a4e 53743131 63686172 5f747261  ._ZNSt11char_tra
 15e0 69747349 6345366c 656e6774 6845504b  itsIcE6lengthEPK
 15f0 63005f5a 4e537431 31636861 725f7472  c._ZNSt11char_tr
 1600 61697473 49774536 61737369 676e4550  aitsIwE6assignEP
 1610 776d7700 77637366 74696d65 005f5a4e  wmw.wcsftime._ZN
 1620 53743131 63686172 5f747261 69747349  St11char_traitsI
 1630 7745346d 6f766545 5077504b 776d005f  wE4moveEPwPKwm._
 1640 5f737461 74650066 7365656b 00617465  _state.fseek.ate
 1650 78697400 5f5a4e4b 53743135 5f5f6578  xit._ZNKSt15__ex
 1660 63657074 696f6e5f 70747231 33657863  ception_ptr13exc
 1670 65707469 6f6e5f70 74726376 62457600  eption_ptrcvbEv.
 1680 5f5a5374 34776369 6e005f76 7461626c  _ZSt4wcin._vtabl
 1690 655f6f66 66736574 006d6f6e 5f67726f  e_offset.mon_gro
 16a0 7570696e 67005f73 79735f65 72726c69  uping._sys_errli
 16b0 7374005f 5f75696e 746d6178 5f74005f  st.__uintmax_t._
 16c0 5a4e395f 5f676e75 5f637878 33646976  ZN9__gnu_cxx3div
 16d0 45787800 5f5a4e53 74313163 6861725f  Exx._ZNSt11char_
 16e0 74726169 74734963 45366173 7369676e  traitsIcE6assign
 16f0 45526352 4b63005f 5a537433 63696e00  ERcRKc._ZSt3cin.
 1700 77637363 61740074 6d706669 6c650031  wcscat.tmpfile.1
 1710 315f5f6d 62737461 74655f74 00696e74  1__mbstate_t.int
 1720 5f705f73 69676e5f 706f736e 005f5f73  _p_sign_posn.__s
 1730 77617070 61626c65 5f776974 685f6465  wappable_with_de
 1740 7461696c 73005f5f 6461796c 69676874  tails.__daylight
 1750 00746d5f 7a6f6e65 005f5f69 6e743634  .tm_zone.__int64
 1760 5f740075 6e676574 63007677 7363616e  _t.ungetc.vwscan
 1770 66007763 72746f6d 62006c63 6f6e7600  f.wcrtomb.lconv.
 1780 5f494f5f 72656164 5f656e64 006d6273  _IO_read_end.mbs
 1790 746f7763 73007763 736e6361 74005f5f  towcs.wcsncat.__
 17a0 6e756d65 7269635f 74726169 74735f69  numeric_traits_i
 17b0 6e746567 65723c73 686f7274 20696e74  nteger<short int
 17c0 3e006368 61725f74 72616974 733c7763  >.char_traits<wc
 17d0 6861725f 743e005f 5f64736f 5f68616e  har_t>.__dso_han
 17e0 646c6500 696e745f 6e5f7369 676e5f70  dle.int_n_sign_p
 17f0 6f736e00 5f66696c 656e6f00 75696e74  osn._fileno.uint
 1800 5f666173 7431365f 74006269 74736574  _fast16_t.bitset
 1810 00767377 7363616e 66006d62 7372746f  .vswscanf.mbsrto
 1820 77637300 5f5f6e75 6d657269 635f7472  wcs.__numeric_tr
 1830 61697473 5f666c6f 6174696e 673c666c  aits_floating<fl
 1840 6f61743e 005f5a4e 53743135 5f5f6578  oat>._ZNSt15__ex
 1850 63657074 696f6e5f 70747231 33657863  ception_ptr13exc
 1860 65707469 6f6e5f70 74723130 5f4d5f72  eption_ptr10_M_r
 1870 656c6561 73654576 005f5a4e 53743135  eleaseEv._ZNSt15
 1880 5f5f6578 63657074 696f6e5f 70747231  __exception_ptr1
 1890 33657863 65707469 6f6e5f70 74724434  3exception_ptrD4
 18a0 4576005f 5f6d6178 5f646967 69747331  Ev.__max_digits1
 18b0 30006670 75747763 005f5f6e 756d6572  0.fputwc.__numer
 18c0 69635f74 72616974 735f696e 74656765  ic_traits_intege
 18d0 723c6c6f 6e672075 6e736967 6e656420  r<long unsigned 
 18e0 696e743e 00746d5f 79656172 005f5a4e  int>.tm_year._ZN
 18f0 53743135 5f5f6578 63657074 696f6e5f  St15__exception_
 1900 70747231 33657863 65707469 6f6e5f70  ptr13exception_p
 1910 74724334 454f5330 5f007368 6f727420  trC4EOS0_.short 
 1920 756e7369 676e6564 20696e74 00737464  unsigned int.std
 1930 6f757400 66726561 64005f5f 6f707300  out.fread.__ops.
 1940 76667773 63616e66 005f494f 5f777269  vfwscanf._IO_wri
 1950 74655f70 74720066 70757477 73005f5a  te_ptr.fputws._Z
 1960 4e537431 31636861 725f7472 61697473  NSt11char_traits
 1970 49774531 31746f5f 696e745f 74797065  IwE11to_int_type
 1980 45524b77 005f5f65 78636570 74696f6e  ERKw.__exception
 1990 5f707472 005f474c 4f42414c 5f5f7375  _ptr._GLOBAL__su
 19a0 625f495f 626c6f63 6b005f5a 4e537431  b_I_block._ZNSt1
 19b0 355f5f65 78636570 74696f6e 5f707472  5__exception_ptr
 19c0 31336578 63657074 696f6e5f 70747239  13exception_ptr9
 19d0 5f4d5f61 64647265 66457600 69737763  _M_addrefEv.iswc
 19e0 74797065 005f5f6d 61780061 73736967  type.__max.assig
 19f0 6e005f5a 4e537431 31636861 725f7472  n._ZNSt11char_tr
 1a00 61697473 49634537 6e6f745f 656f6645  aitsIcE7not_eofE
 1a10 524b6900 66666c75 73680077 63686172  RKi.fflush.wchar
 1a20 5f740074 79706564 6566205f 5f76615f  _t.typedef __va_
 1a30 6c697374 5f746167 205f5f76 615f6c69  list_tag __va_li
 1a40 73745f74 61670077 6373746f 756c005f  st_tag.wcstoul._
 1a50 5a4e5374 31316368 61725f74 72616974  ZNSt11char_trait
 1a60 73496345 3131746f 5f696e74 5f747970  sIcE11to_int_typ
 1a70 6545524b 63006672 656f7065 6e00      eERKc.freopen.  
Contents of section .debug_ranges:
 0000 57074000 00000000 da104000 00000000  W.@.......@.....
 0010 da104000 00000000 89114000 00000000  ..@.......@.....
 0020 8a114000 00000000 bf114000 00000000  ..@.......@.....
 0030 00000000 00000000 00000000 00000000  ................

Disassembly of section .init:

00000000004005d8 <_init>:
  4005d8:	48 83 ec 08          	sub    $0x8,%rsp
  4005dc:	48 8b 05 15 1a 20 00 	mov    0x201a15(%rip),%rax        # 601ff8 <__gmon_start__>
  4005e3:	48 85 c0             	test   %rax,%rax
  4005e6:	74 02                	je     4005ea <_init+0x12>
  4005e8:	ff d0                	callq  *%rax
  4005ea:	48 83 c4 08          	add    $0x8,%rsp
  4005ee:	c3                   	retq   

Disassembly of section .plt:

00000000004005f0 <.plt>:
  4005f0:	ff 35 12 1a 20 00    	pushq  0x201a12(%rip)        # 602008 <_GLOBAL_OFFSET_TABLE_+0x8>
  4005f6:	ff 25 14 1a 20 00    	jmpq   *0x201a14(%rip)        # 602010 <_GLOBAL_OFFSET_TABLE_+0x10>
  4005fc:	0f 1f 40 00          	nopl   0x0(%rax)

0000000000400600 <printf@plt>:
  400600:	ff 25 12 1a 20 00    	jmpq   *0x201a12(%rip)        # 602018 <printf@GLIBC_2.2.5>
  400606:	68 00 00 00 00       	pushq  $0x0
  40060b:	e9 e0 ff ff ff       	jmpq   4005f0 <.plt>

0000000000400610 <memset@plt>:
  400610:	ff 25 0a 1a 20 00    	jmpq   *0x201a0a(%rip)        # 602020 <memset@GLIBC_2.2.5>
  400616:	68 01 00 00 00       	pushq  $0x1
  40061b:	e9 d0 ff ff ff       	jmpq   4005f0 <.plt>

0000000000400620 <abort@plt>:
  400620:	ff 25 02 1a 20 00    	jmpq   *0x201a02(%rip)        # 602028 <abort@GLIBC_2.2.5>
  400626:	68 02 00 00 00       	pushq  $0x2
  40062b:	e9 c0 ff ff ff       	jmpq   4005f0 <.plt>

0000000000400630 <__cxa_atexit@plt>:
  400630:	ff 25 fa 19 20 00    	jmpq   *0x2019fa(%rip)        # 602030 <__cxa_atexit@GLIBC_2.2.5>
  400636:	68 03 00 00 00       	pushq  $0x3
  40063b:	e9 b0 ff ff ff       	jmpq   4005f0 <.plt>

0000000000400640 <scanf@plt>:
  400640:	ff 25 f2 19 20 00    	jmpq   *0x2019f2(%rip)        # 602038 <scanf@GLIBC_2.2.5>
  400646:	68 04 00 00 00       	pushq  $0x4
  40064b:	e9 a0 ff ff ff       	jmpq   4005f0 <.plt>

0000000000400650 <getchar@plt>:
  400650:	ff 25 ea 19 20 00    	jmpq   *0x2019ea(%rip)        # 602040 <getchar@GLIBC_2.2.5>
  400656:	68 05 00 00 00       	pushq  $0x5
  40065b:	e9 90 ff ff ff       	jmpq   4005f0 <.plt>

0000000000400660 <_ZNSt8ios_base4InitC1Ev@plt>:
  400660:	ff 25 e2 19 20 00    	jmpq   *0x2019e2(%rip)        # 602048 <_ZNSt8ios_base4InitC1Ev@GLIBCXX_3.4>
  400666:	68 06 00 00 00       	pushq  $0x6
  40066b:	e9 80 ff ff ff       	jmpq   4005f0 <.plt>

0000000000400670 <_ZNSt8ios_base4InitD1Ev@plt>:
  400670:	ff 25 da 19 20 00    	jmpq   *0x2019da(%rip)        # 602050 <_ZNSt8ios_base4InitD1Ev@GLIBCXX_3.4>
  400676:	68 07 00 00 00       	pushq  $0x7
  40067b:	e9 70 ff ff ff       	jmpq   4005f0 <.plt>

Disassembly of section .text:

0000000000400680 <_start>:
  400680:	31 ed                	xor    %ebp,%ebp
  400682:	49 89 d1             	mov    %rdx,%r9
  400685:	5e                   	pop    %rsi
  400686:	48 89 e2             	mov    %rsp,%rdx
  400689:	48 83 e4 f0          	and    $0xfffffffffffffff0,%rsp
  40068d:	50                   	push   %rax
  40068e:	54                   	push   %rsp
  40068f:	49 c7 c0 30 12 40 00 	mov    $0x401230,%r8
  400696:	48 c7 c1 c0 11 40 00 	mov    $0x4011c0,%rcx
  40069d:	48 c7 c7 05 09 40 00 	mov    $0x400905,%rdi
  4006a4:	ff 15 46 19 20 00    	callq  *0x201946(%rip)        # 601ff0 <__libc_start_main@GLIBC_2.2.5>
  4006aa:	f4                   	hlt    
  4006ab:	0f 1f 44 00 00       	nopl   0x0(%rax,%rax,1)

00000000004006b0 <deregister_tm_clones>:
  4006b0:	55                   	push   %rbp
  4006b1:	b8 60 20 60 00       	mov    $0x602060,%eax
  4006b6:	48 3d 60 20 60 00    	cmp    $0x602060,%rax
  4006bc:	48 89 e5             	mov    %rsp,%rbp
  4006bf:	74 17                	je     4006d8 <deregister_tm_clones+0x28>
  4006c1:	b8 00 00 00 00       	mov    $0x0,%eax
  4006c6:	48 85 c0             	test   %rax,%rax
  4006c9:	74 0d                	je     4006d8 <deregister_tm_clones+0x28>
  4006cb:	5d                   	pop    %rbp
  4006cc:	bf 60 20 60 00       	mov    $0x602060,%edi
  4006d1:	ff e0                	jmpq   *%rax
  4006d3:	0f 1f 44 00 00       	nopl   0x0(%rax,%rax,1)
  4006d8:	5d                   	pop    %rbp
  4006d9:	c3                   	retq   
  4006da:	66 0f 1f 44 00 00    	nopw   0x0(%rax,%rax,1)

00000000004006e0 <register_tm_clones>:
  4006e0:	be 60 20 60 00       	mov    $0x602060,%esi
  4006e5:	55                   	push   %rbp
  4006e6:	48 81 ee 60 20 60 00 	sub    $0x602060,%rsi
  4006ed:	48 89 e5             	mov    %rsp,%rbp
  4006f0:	48 c1 fe 03          	sar    $0x3,%rsi
  4006f4:	48 89 f0             	mov    %rsi,%rax
  4006f7:	48 c1 e8 3f          	shr    $0x3f,%rax
  4006fb:	48 01 c6             	add    %rax,%rsi
  4006fe:	48 d1 fe             	sar    %rsi
  400701:	74 15                	je     400718 <register_tm_clones+0x38>
  400703:	b8 00 00 00 00       	mov    $0x0,%eax
  400708:	48 85 c0             	test   %rax,%rax
  40070b:	74 0b                	je     400718 <register_tm_clones+0x38>
  40070d:	5d                   	pop    %rbp
  40070e:	bf 60 20 60 00       	mov    $0x602060,%edi
  400713:	ff e0                	jmpq   *%rax
  400715:	0f 1f 00             	nopl   (%rax)
  400718:	5d                   	pop    %rbp
  400719:	c3                   	retq   
  40071a:	66 0f 1f 44 00 00    	nopw   0x0(%rax,%rax,1)

0000000000400720 <__do_global_dtors_aux>:
  400720:	80 3d 39 19 20 00 00 	cmpb   $0x0,0x201939(%rip)        # 602060 <__TMC_END__>
  400727:	75 17                	jne    400740 <__do_global_dtors_aux+0x20>
  400729:	55                   	push   %rbp
  40072a:	48 89 e5             	mov    %rsp,%rbp
  40072d:	e8 7e ff ff ff       	callq  4006b0 <deregister_tm_clones>
  400732:	c6 05 27 19 20 00 01 	movb   $0x1,0x201927(%rip)        # 602060 <__TMC_END__>
  400739:	5d                   	pop    %rbp
  40073a:	c3                   	retq   
  40073b:	0f 1f 44 00 00       	nopl   0x0(%rax,%rax,1)
  400740:	f3 c3                	repz retq 
  400742:	0f 1f 40 00          	nopl   0x0(%rax)
  400746:	66 2e 0f 1f 84 00 00 	nopw   %cs:0x0(%rax,%rax,1)
  40074d:	00 00 00 

0000000000400750 <frame_dummy>:
  400750:	55                   	push   %rbp
  400751:	48 89 e5             	mov    %rsp,%rbp
  400754:	5d                   	pop    %rbp
  400755:	eb 89                	jmp    4006e0 <register_tm_clones>

0000000000400757 <_Z4initv>:
  400757:	55                   	push   %rbp
  400758:	48 89 e5             	mov    %rsp,%rbp
  40075b:	48 83 ec 10          	sub    $0x10,%rsp
  40075f:	8b 05 23 19 20 00    	mov    0x201923(%rip),%eax        # 602088 <m>
  400765:	83 e8 01             	sub    $0x1,%eax
  400768:	8d 50 3f             	lea    0x3f(%rax),%edx
  40076b:	85 c0                	test   %eax,%eax
  40076d:	0f 48 c2             	cmovs  %edx,%eax
  400770:	c1 f8 06             	sar    $0x6,%eax
  400773:	89 05 07 19 20 00    	mov    %eax,0x201907(%rip)        # 602080 <block>
  400779:	c7 05 1d 05 34 00 01 	movl   $0x1,0x34051d(%rip)        # 740ca0 <bac>
  400780:	00 00 00 
  400783:	c7 45 fc 01 00 00 00 	movl   $0x1,-0x4(%rbp)
  40078a:	8b 05 f4 18 20 00    	mov    0x2018f4(%rip),%eax        # 602084 <n>
  400790:	39 45 fc             	cmp    %eax,-0x4(%rbp)
  400793:	7f 44                	jg     4007d9 <_Z4initv+0x82>
  400795:	8b 45 fc             	mov    -0x4(%rbp),%eax
  400798:	83 e8 01             	sub    $0x1,%eax
  40079b:	48 98                	cltq   
  40079d:	8b 04 85 a0 0c 74 00 	mov    0x740ca0(,%rax,4),%eax
  4007a4:	8d 0c 00             	lea    (%rax,%rax,1),%ecx
  4007a7:	ba 99 2f b8 44       	mov    $0x44b82f99,%edx
  4007ac:	89 c8                	mov    %ecx,%eax
  4007ae:	f7 ea                	imul   %edx
  4007b0:	c1 fa 1c             	sar    $0x1c,%edx
  4007b3:	89 c8                	mov    %ecx,%eax
  4007b5:	c1 f8 1f             	sar    $0x1f,%eax
  4007b8:	29 c2                	sub    %eax,%edx
  4007ba:	89 d0                	mov    %edx,%eax
  4007bc:	69 c0 07 ca 9a 3b    	imul   $0x3b9aca07,%eax,%eax
  4007c2:	29 c1                	sub    %eax,%ecx
  4007c4:	89 c8                	mov    %ecx,%eax
  4007c6:	8b 55 fc             	mov    -0x4(%rbp),%edx
  4007c9:	48 63 d2             	movslq %edx,%rdx
  4007cc:	89 04 95 a0 0c 74 00 	mov    %eax,0x740ca0(,%rdx,4)
  4007d3:	83 45 fc 01          	addl   $0x1,-0x4(%rbp)
  4007d7:	eb b1                	jmp    40078a <_Z4initv+0x33>
  4007d9:	ba 80 02 00 00       	mov    $0x280,%edx
  4007de:	be 00 00 00 00       	mov    $0x0,%esi
  4007e3:	bf a0 e4 73 00       	mov    $0x73e4a0,%edi
  4007e8:	e8 23 fe ff ff       	callq  400610 <memset@plt>
  4007ed:	c7 45 f8 00 00 00 00 	movl   $0x0,-0x8(%rbp)
  4007f4:	8b 05 8e 18 20 00    	mov    0x20188e(%rip),%eax        # 602088 <m>
  4007fa:	39 45 f8             	cmp    %eax,-0x8(%rbp)
  4007fd:	7d 4d                	jge    40084c <_Z4initv+0xf5>
  4007ff:	8b 45 f8             	mov    -0x8(%rbp),%eax
  400802:	8d 50 3f             	lea    0x3f(%rax),%edx
  400805:	85 c0                	test   %eax,%eax
  400807:	0f 48 c2             	cmovs  %edx,%eax
  40080a:	c1 f8 06             	sar    $0x6,%eax
  40080d:	89 c6                	mov    %eax,%esi
  40080f:	48 63 c6             	movslq %esi,%rax
  400812:	48 8b 3c c5 a0 e4 73 	mov    0x73e4a0(,%rax,8),%rdi
  400819:	00 
  40081a:	8b 45 f8             	mov    -0x8(%rbp),%eax
  40081d:	99                   	cltd   
  40081e:	c1 ea 1a             	shr    $0x1a,%edx
  400821:	01 d0                	add    %edx,%eax
  400823:	83 e0 3f             	and    $0x3f,%eax
  400826:	29 d0                	sub    %edx,%eax
  400828:	ba 01 00 00 00       	mov    $0x1,%edx
  40082d:	89 c1                	mov    %eax,%ecx
  40082f:	48 d3 e2             	shl    %cl,%rdx
  400832:	48 89 d0             	mov    %rdx,%rax
  400835:	48 09 c7             	or     %rax,%rdi
  400838:	48 89 fa             	mov    %rdi,%rdx
  40083b:	48 63 c6             	movslq %esi,%rax
  40083e:	48 89 14 c5 a0 e4 73 	mov    %rdx,0x73e4a0(,%rax,8)
  400845:	00 
  400846:	83 45 f8 01          	addl   $0x1,-0x8(%rbp)
  40084a:	eb a8                	jmp    4007f4 <_Z4initv+0x9d>
  40084c:	c7 45 f4 01 00 00 00 	movl   $0x1,-0xc(%rbp)
  400853:	8b 05 2b 18 20 00    	mov    0x20182b(%rip),%eax        # 602084 <n>
  400859:	39 45 f4             	cmp    %eax,-0xc(%rbp)
  40085c:	0f 8f a0 00 00 00    	jg     400902 <_Z4initv+0x1ab>
  400862:	8b 45 f4             	mov    -0xc(%rbp),%eax
  400865:	48 63 d0             	movslq %eax,%rdx
  400868:	48 89 d0             	mov    %rdx,%rax
  40086b:	48 c1 e0 02          	shl    $0x2,%rax
  40086f:	48 01 d0             	add    %rdx,%rax
  400872:	48 c1 e0 07          	shl    $0x7,%rax
  400876:	48 05 a0 20 60 00    	add    $0x6020a0,%rax
  40087c:	48 89 c7             	mov    %rax,%rdi
  40087f:	e8 56 08 00 00       	callq  4010da <_ZN6bitset4readEv>
  400884:	c7 45 f0 00 00 00 00 	movl   $0x0,-0x10(%rbp)
  40088b:	8b 05 ef 17 20 00    	mov    0x2017ef(%rip),%eax        # 602080 <block>
  400891:	39 45 f0             	cmp    %eax,-0x10(%rbp)
  400894:	7f 63                	jg     4008f9 <_Z4initv+0x1a2>
  400896:	8b 45 f0             	mov    -0x10(%rbp),%eax
  400899:	48 63 c8             	movslq %eax,%rcx
  40089c:	8b 45 f4             	mov    -0xc(%rbp),%eax
  40089f:	48 63 d0             	movslq %eax,%rdx
  4008a2:	48 89 d0             	mov    %rdx,%rax
  4008a5:	48 c1 e0 02          	shl    $0x2,%rax
  4008a9:	48 01 d0             	add    %rdx,%rax
  4008ac:	48 c1 e0 04          	shl    $0x4,%rax
  4008b0:	48 01 c8             	add    %rcx,%rax
  4008b3:	48 8b 14 c5 a0 20 60 	mov    0x6020a0(,%rax,8),%rdx
  4008ba:	00 
  4008bb:	8b 45 f0             	mov    -0x10(%rbp),%eax
  4008be:	48 98                	cltq   
  4008c0:	48 8b 04 c5 a0 e4 73 	mov    0x73e4a0(,%rax,8),%rax
  4008c7:	00 
  4008c8:	48 89 d1             	mov    %rdx,%rcx
  4008cb:	48 31 c1             	xor    %rax,%rcx
  4008ce:	8b 45 f0             	mov    -0x10(%rbp),%eax
  4008d1:	48 63 f0             	movslq %eax,%rsi
  4008d4:	8b 45 f4             	mov    -0xc(%rbp),%eax
  4008d7:	48 63 d0             	movslq %eax,%rdx
  4008da:	48 89 d0             	mov    %rdx,%rax
  4008dd:	48 c1 e0 02          	shl    $0x2,%rax
  4008e1:	48 01 d0             	add    %rdx,%rax
  4008e4:	48 c1 e0 04          	shl    $0x4,%rax
  4008e8:	48 01 f0             	add    %rsi,%rax
  4008eb:	48 89 0c c5 a0 02 6a 	mov    %rcx,0x6a02a0(,%rax,8)
  4008f2:	00 
  4008f3:	83 45 f0 01          	addl   $0x1,-0x10(%rbp)
  4008f7:	eb 92                	jmp    40088b <_Z4initv+0x134>
  4008f9:	83 45 f4 01          	addl   $0x1,-0xc(%rbp)
  4008fd:	e9 51 ff ff ff       	jmpq   400853 <_Z4initv+0xfc>
  400902:	90                   	nop
  400903:	c9                   	leaveq 
  400904:	c3                   	retq   

0000000000400905 <main>:
  400905:	55                   	push   %rbp
  400906:	48 89 e5             	mov    %rsp,%rbp
  400909:	48 83 ec 20          	sub    $0x20,%rsp
  40090d:	b9 8c 20 60 00       	mov    $0x60208c,%ecx
  400912:	ba 88 20 60 00       	mov    $0x602088,%edx
  400917:	be 84 20 60 00       	mov    $0x602084,%esi
  40091c:	bf 5c 12 40 00       	mov    $0x40125c,%edi
  400921:	b8 00 00 00 00       	mov    $0x0,%eax
  400926:	e8 15 fd ff ff       	callq  400640 <scanf@plt>
  40092b:	e8 27 fe ff ff       	callq  400757 <_Z4initv>
  400930:	8b 05 56 17 20 00    	mov    0x201756(%rip),%eax        # 60208c <Q>
  400936:	8d 50 ff             	lea    -0x1(%rax),%edx
  400939:	89 15 4d 17 20 00    	mov    %edx,0x20174d(%rip)        # 60208c <Q>
  40093f:	85 c0                	test   %eax,%eax
  400941:	0f 95 c0             	setne  %al
  400944:	84 c0                	test   %al,%al
  400946:	0f 84 34 07 00 00    	je     401080 <main+0x77b>
  40094c:	bf 20 f1 73 00       	mov    $0x73f120,%edi
  400951:	e8 84 07 00 00       	callq  4010da <_ZN6bitset4readEv>
  400956:	c7 05 18 13 34 00 00 	movl   $0x0,0x341318(%rip)        # 741c78 <cur>
  40095d:	00 00 00 
  400960:	8b 05 12 13 34 00    	mov    0x341312(%rip),%eax        # 741c78 <cur>
  400966:	89 05 14 13 34 00    	mov    %eax,0x341314(%rip)        # 741c80 <ans>
  40096c:	8b 05 0e 13 34 00    	mov    0x34130e(%rip),%eax        # 741c80 <ans>
  400972:	89 05 fc 12 34 00    	mov    %eax,0x3412fc(%rip)        # 741c74 <dt>
  400978:	8b 0d fa 12 34 00    	mov    0x3412fa(%rip),%ecx        # 741c78 <cur>
  40097e:	8b 05 f0 12 34 00    	mov    0x3412f0(%rip),%eax        # 741c74 <dt>
  400984:	83 c0 01             	add    $0x1,%eax
  400987:	89 05 e7 12 34 00    	mov    %eax,0x3412e7(%rip)        # 741c74 <dt>
  40098d:	8b 05 e1 12 34 00    	mov    0x3412e1(%rip),%eax        # 741c74 <dt>
  400993:	48 98                	cltq   
  400995:	48 89 c2             	mov    %rax,%rdx
  400998:	48 c1 e2 02          	shl    $0x2,%rdx
  40099c:	48 01 c2             	add    %rax,%rdx
  40099f:	48 89 d0             	mov    %rdx,%rax
  4009a2:	48 c1 e0 07          	shl    $0x7,%rax
  4009a6:	48 89 c2             	mov    %rax,%rdx
  4009a9:	48 63 c9             	movslq %ecx,%rcx
  4009ac:	48 89 c8             	mov    %rcx,%rax
  4009af:	48 c1 e0 02          	shl    $0x2,%rax
  4009b3:	48 01 c8             	add    %rcx,%rax
  4009b6:	48 c1 e0 09          	shl    $0x9,%rax
  4009ba:	48 01 d0             	add    %rdx,%rax
  4009bd:	48 05 a0 f8 73 00    	add    $0x73f8a0,%rax
  4009c3:	48 89 c7             	mov    %rax,%rdi
  4009c6:	e8 bf 07 00 00       	callq  40118a <_ZN6bitset5clearEv>
  4009cb:	8b 05 b3 16 20 00    	mov    0x2016b3(%rip),%eax        # 602084 <n>
  4009d1:	89 45 fc             	mov    %eax,-0x4(%rbp)
  4009d4:	83 7d fc 00          	cmpl   $0x0,-0x4(%rbp)
  4009d8:	0f 84 ca 05 00 00    	je     400fa8 <main+0x6a3>
  4009de:	8b 05 90 12 34 00    	mov    0x341290(%rip),%eax        # 741c74 <dt>
  4009e4:	89 05 92 12 34 00    	mov    %eax,0x341292(%rip)        # 741c7c <tot>
  4009ea:	8b 05 88 12 34 00    	mov    0x341288(%rip),%eax        # 741c78 <cur>
  4009f0:	83 f0 01             	xor    $0x1,%eax
  4009f3:	89 05 7f 12 34 00    	mov    %eax,0x34127f(%rip)        # 741c78 <cur>
  4009f9:	c7 05 71 12 34 00 00 	movl   $0x0,0x341271(%rip)        # 741c74 <dt>
  400a00:	00 00 00 
  400a03:	c7 45 f8 01 00 00 00 	movl   $0x1,-0x8(%rbp)
  400a0a:	8b 05 6c 12 34 00    	mov    0x34126c(%rip),%eax        # 741c7c <tot>
  400a10:	39 45 f8             	cmp    %eax,-0x8(%rbp)
  400a13:	0f 8f 86 05 00 00    	jg     400f9f <main+0x69a>
  400a19:	c6 45 f7 01          	movb   $0x1,-0x9(%rbp)
  400a1d:	c6 45 f6 01          	movb   $0x1,-0xa(%rbp)
  400a21:	c6 45 f5 01          	movb   $0x1,-0xb(%rbp)
  400a25:	c6 45 f4 01          	movb   $0x1,-0xc(%rbp)
  400a29:	c7 45 f0 00 00 00 00 	movl   $0x0,-0x10(%rbp)
  400a30:	8b 05 4a 16 20 00    	mov    0x20164a(%rip),%eax        # 602080 <block>
  400a36:	39 45 f0             	cmp    %eax,-0x10(%rbp)
  400a39:	0f 8f e7 03 00 00    	jg     400e26 <main+0x521>
  400a3f:	0f b6 45 f7          	movzbl -0x9(%rbp),%eax
  400a43:	83 f0 01             	xor    $0x1,%eax
  400a46:	84 c0                	test   %al,%al
  400a48:	74 0f                	je     400a59 <main+0x154>
  400a4a:	0f b6 45 f6          	movzbl -0xa(%rbp),%eax
  400a4e:	83 f0 01             	xor    $0x1,%eax
  400a51:	84 c0                	test   %al,%al
  400a53:	0f 85 cc 03 00 00    	jne    400e25 <main+0x520>
  400a59:	8b 05 19 12 34 00    	mov    0x341219(%rip),%eax        # 741c78 <cur>
  400a5f:	83 f0 01             	xor    $0x1,%eax
  400a62:	89 c2                	mov    %eax,%edx
  400a64:	8b 45 f0             	mov    -0x10(%rbp),%eax
  400a67:	48 63 f0             	movslq %eax,%rsi
  400a6a:	48 63 c2             	movslq %edx,%rax
  400a6d:	8b 55 f8             	mov    -0x8(%rbp),%edx
  400a70:	48 63 ca             	movslq %edx,%rcx
  400a73:	48 89 c2             	mov    %rax,%rdx
  400a76:	48 c1 e2 02          	shl    $0x2,%rdx
  400a7a:	48 01 c2             	add    %rax,%rdx
  400a7d:	48 89 d0             	mov    %rdx,%rax
  400a80:	48 c1 e0 06          	shl    $0x6,%rax
  400a84:	48 89 c2             	mov    %rax,%rdx
  400a87:	48 89 c8             	mov    %rcx,%rax
  400a8a:	48 c1 e0 02          	shl    $0x2,%rax
  400a8e:	48 01 c8             	add    %rcx,%rax
  400a91:	48 c1 e0 04          	shl    $0x4,%rax
  400a95:	48 01 d0             	add    %rdx,%rax
  400a98:	48 01 f0             	add    %rsi,%rax
  400a9b:	48 8b 14 c5 a0 f8 73 	mov    0x73f8a0(,%rax,8),%rdx
  400aa2:	00 
  400aa3:	8b 45 f0             	mov    -0x10(%rbp),%eax
  400aa6:	48 98                	cltq   
  400aa8:	48 8b 04 c5 a0 e4 73 	mov    0x73e4a0(,%rax,8),%rax
  400aaf:	00 
  400ab0:	48 39 c2             	cmp    %rax,%rdx
  400ab3:	75 49                	jne    400afe <main+0x1f9>
  400ab5:	80 7d f7 00          	cmpb   $0x0,-0x9(%rbp)
  400ab9:	74 1a                	je     400ad5 <main+0x1d0>
  400abb:	8b 45 f0             	mov    -0x10(%rbp),%eax
  400abe:	48 98                	cltq   
  400ac0:	48 8b 14 c5 a0 e4 73 	mov    0x73e4a0(,%rax,8),%rdx
  400ac7:	00 
  400ac8:	8b 45 f0             	mov    -0x10(%rbp),%eax
  400acb:	48 98                	cltq   
  400acd:	48 89 14 c5 20 e7 73 	mov    %rdx,0x73e720(,%rax,8)
  400ad4:	00 
  400ad5:	80 7d f6 00          	cmpb   $0x0,-0xa(%rbp)
  400ad9:	0f 84 3c 03 00 00    	je     400e1b <main+0x516>
  400adf:	8b 45 f0             	mov    -0x10(%rbp),%eax
  400ae2:	48 98                	cltq   
  400ae4:	48 8b 14 c5 a0 e4 73 	mov    0x73e4a0(,%rax,8),%rdx
  400aeb:	00 
  400aec:	8b 45 f0             	mov    -0x10(%rbp),%eax
  400aef:	48 98                	cltq   
  400af1:	48 89 14 c5 a0 e9 73 	mov    %rdx,0x73e9a0(,%rax,8)
  400af8:	00 
  400af9:	e9 1d 03 00 00       	jmpq   400e1b <main+0x516>
  400afe:	80 7d f7 00          	cmpb   $0x0,-0x9(%rbp)
  400b02:	74 4b                	je     400b4f <main+0x24a>
  400b04:	8b 45 f0             	mov    -0x10(%rbp),%eax
  400b07:	48 98                	cltq   
  400b09:	48 8b 04 c5 20 f1 73 	mov    0x73f120(,%rax,8),%rax
  400b10:	00 
  400b11:	48 f7 d0             	not    %rax
  400b14:	48 89 c6             	mov    %rax,%rsi
  400b17:	8b 45 f0             	mov    -0x10(%rbp),%eax
  400b1a:	48 63 c8             	movslq %eax,%rcx
  400b1d:	8b 45 fc             	mov    -0x4(%rbp),%eax
  400b20:	48 63 d0             	movslq %eax,%rdx
  400b23:	48 89 d0             	mov    %rdx,%rax
  400b26:	48 c1 e0 02          	shl    $0x2,%rax
  400b2a:	48 01 d0             	add    %rdx,%rax
  400b2d:	48 c1 e0 04          	shl    $0x4,%rax
  400b31:	48 01 c8             	add    %rcx,%rax
  400b34:	48 8b 04 c5 a0 20 60 	mov    0x6020a0(,%rax,8),%rax
  400b3b:	00 
  400b3c:	48 21 c6             	and    %rax,%rsi
  400b3f:	48 89 f2             	mov    %rsi,%rdx
  400b42:	8b 45 f0             	mov    -0x10(%rbp),%eax
  400b45:	48 98                	cltq   
  400b47:	48 89 14 c5 20 ec 73 	mov    %rdx,0x73ec20(,%rax,8)
  400b4e:	00 
  400b4f:	80 7d f6 00          	cmpb   $0x0,-0xa(%rbp)
  400b53:	74 48                	je     400b9d <main+0x298>
  400b55:	8b 45 f0             	mov    -0x10(%rbp),%eax
  400b58:	48 63 c8             	movslq %eax,%rcx
  400b5b:	8b 45 fc             	mov    -0x4(%rbp),%eax
  400b5e:	48 63 d0             	movslq %eax,%rdx
  400b61:	48 89 d0             	mov    %rdx,%rax
  400b64:	48 c1 e0 02          	shl    $0x2,%rax
  400b68:	48 01 d0             	add    %rdx,%rax
  400b6b:	48 c1 e0 04          	shl    $0x4,%rax
  400b6f:	48 01 c8             	add    %rcx,%rax
  400b72:	48 8b 04 c5 a0 20 60 	mov    0x6020a0(,%rax,8),%rax
  400b79:	00 
  400b7a:	48 f7 d0             	not    %rax
  400b7d:	48 89 c2             	mov    %rax,%rdx
  400b80:	8b 45 f0             	mov    -0x10(%rbp),%eax
  400b83:	48 98                	cltq   
  400b85:	48 8b 04 c5 20 f1 73 	mov    0x73f120(,%rax,8),%rax
  400b8c:	00 
  400b8d:	48 21 c2             	and    %rax,%rdx
  400b90:	8b 45 f0             	mov    -0x10(%rbp),%eax
  400b93:	48 98                	cltq   
  400b95:	48 89 14 c5 a0 ee 73 	mov    %rdx,0x73eea0(,%rax,8)
  400b9c:	00 
  400b9d:	80 7d f7 00          	cmpb   $0x0,-0x9(%rbp)
  400ba1:	74 73                	je     400c16 <main+0x311>
  400ba3:	8b 45 f0             	mov    -0x10(%rbp),%eax
  400ba6:	48 98                	cltq   
  400ba8:	48 8b 34 c5 20 ec 73 	mov    0x73ec20(,%rax,8),%rsi
  400baf:	00 
  400bb0:	8b 05 c2 10 34 00    	mov    0x3410c2(%rip),%eax        # 741c78 <cur>
  400bb6:	83 f0 01             	xor    $0x1,%eax
  400bb9:	89 c2                	mov    %eax,%edx
  400bbb:	8b 45 f0             	mov    -0x10(%rbp),%eax
  400bbe:	48 63 f8             	movslq %eax,%rdi
  400bc1:	48 63 c2             	movslq %edx,%rax
  400bc4:	8b 55 f8             	mov    -0x8(%rbp),%edx
  400bc7:	48 63 ca             	movslq %edx,%rcx
  400bca:	48 89 c2             	mov    %rax,%rdx
  400bcd:	48 c1 e2 02          	shl    $0x2,%rdx
  400bd1:	48 01 c2             	add    %rax,%rdx
  400bd4:	48 89 d0             	mov    %rdx,%rax
  400bd7:	48 c1 e0 06          	shl    $0x6,%rax
  400bdb:	48 89 c2             	mov    %rax,%rdx
  400bde:	48 89 c8             	mov    %rcx,%rax
  400be1:	48 c1 e0 02          	shl    $0x2,%rax
  400be5:	48 01 c8             	add    %rcx,%rax
  400be8:	48 c1 e0 04          	shl    $0x4,%rax
  400bec:	48 01 d0             	add    %rdx,%rax
  400bef:	48 01 f8             	add    %rdi,%rax
  400bf2:	48 8b 04 c5 a0 f8 73 	mov    0x73f8a0(,%rax,8),%rax
  400bf9:	00 
  400bfa:	48 21 c6             	and    %rax,%rsi
  400bfd:	48 89 f2             	mov    %rsi,%rdx
  400c00:	8b 45 f0             	mov    -0x10(%rbp),%eax
  400c03:	48 98                	cltq   
  400c05:	48 8b 04 c5 20 ec 73 	mov    0x73ec20(,%rax,8),%rax
  400c0c:	00 
  400c0d:	48 39 c2             	cmp    %rax,%rdx
  400c10:	74 04                	je     400c16 <main+0x311>
  400c12:	c6 45 f7 00          	movb   $0x0,-0x9(%rbp)
  400c16:	80 7d f6 00          	cmpb   $0x0,-0xa(%rbp)
  400c1a:	74 73                	je     400c8f <main+0x38a>
  400c1c:	8b 45 f0             	mov    -0x10(%rbp),%eax
  400c1f:	48 98                	cltq   
  400c21:	48 8b 34 c5 a0 ee 73 	mov    0x73eea0(,%rax,8),%rsi
  400c28:	00 
  400c29:	8b 05 49 10 34 00    	mov    0x341049(%rip),%eax        # 741c78 <cur>
  400c2f:	83 f0 01             	xor    $0x1,%eax
  400c32:	89 c2                	mov    %eax,%edx
  400c34:	8b 45 f0             	mov    -0x10(%rbp),%eax
  400c37:	48 63 f8             	movslq %eax,%rdi
  400c3a:	48 63 c2             	movslq %edx,%rax
  400c3d:	8b 55 f8             	mov    -0x8(%rbp),%edx
  400c40:	48 63 ca             	movslq %edx,%rcx
  400c43:	48 89 c2             	mov    %rax,%rdx
  400c46:	48 c1 e2 02          	shl    $0x2,%rdx
  400c4a:	48 01 c2             	add    %rax,%rdx
  400c4d:	48 89 d0             	mov    %rdx,%rax
  400c50:	48 c1 e0 06          	shl    $0x6,%rax
  400c54:	48 89 c2             	mov    %rax,%rdx
  400c57:	48 89 c8             	mov    %rcx,%rax
  400c5a:	48 c1 e0 02          	shl    $0x2,%rax
  400c5e:	48 01 c8             	add    %rcx,%rax
  400c61:	48 c1 e0 04          	shl    $0x4,%rax
  400c65:	48 01 d0             	add    %rdx,%rax
  400c68:	48 01 f8             	add    %rdi,%rax
  400c6b:	48 8b 04 c5 a0 f8 73 	mov    0x73f8a0(,%rax,8),%rax
  400c72:	00 
  400c73:	48 21 c6             	and    %rax,%rsi
  400c76:	48 89 f2             	mov    %rsi,%rdx
  400c79:	8b 45 f0             	mov    -0x10(%rbp),%eax
  400c7c:	48 98                	cltq   
  400c7e:	48 8b 04 c5 a0 ee 73 	mov    0x73eea0(,%rax,8),%rax
  400c85:	00 
  400c86:	48 39 c2             	cmp    %rax,%rdx
  400c89:	74 04                	je     400c8f <main+0x38a>
  400c8b:	c6 45 f6 00          	movb   $0x0,-0xa(%rbp)
  400c8f:	80 7d f7 00          	cmpb   $0x0,-0x9(%rbp)
  400c93:	0f 84 92 00 00 00    	je     400d2b <main+0x426>
  400c99:	8b 05 d9 0f 34 00    	mov    0x340fd9(%rip),%eax        # 741c78 <cur>
  400c9f:	83 f0 01             	xor    $0x1,%eax
  400ca2:	89 c2                	mov    %eax,%edx
  400ca4:	8b 45 f0             	mov    -0x10(%rbp),%eax
  400ca7:	48 63 f0             	movslq %eax,%rsi
  400caa:	48 63 c2             	movslq %edx,%rax
  400cad:	8b 55 f8             	mov    -0x8(%rbp),%edx
  400cb0:	48 63 ca             	movslq %edx,%rcx
  400cb3:	48 89 c2             	mov    %rax,%rdx
  400cb6:	48 c1 e2 02          	shl    $0x2,%rdx
  400cba:	48 01 c2             	add    %rax,%rdx
  400cbd:	48 89 d0             	mov    %rdx,%rax
  400cc0:	48 c1 e0 06          	shl    $0x6,%rax
  400cc4:	48 89 c2             	mov    %rax,%rdx
  400cc7:	48 89 c8             	mov    %rcx,%rax
  400cca:	48 c1 e0 02          	shl    $0x2,%rax
  400cce:	48 01 c8             	add    %rcx,%rax
  400cd1:	48 c1 e0 04          	shl    $0x4,%rax
  400cd5:	48 01 d0             	add    %rdx,%rax
  400cd8:	48 01 f0             	add    %rsi,%rax
  400cdb:	48 8b 0c c5 a0 f8 73 	mov    0x73f8a0(,%rax,8),%rcx
  400ce2:	00 
  400ce3:	8b 45 f0             	mov    -0x10(%rbp),%eax
  400ce6:	48 63 f0             	movslq %eax,%rsi
  400ce9:	8b 45 fc             	mov    -0x4(%rbp),%eax
  400cec:	48 63 d0             	movslq %eax,%rdx
  400cef:	48 89 d0             	mov    %rdx,%rax
  400cf2:	48 c1 e0 02          	shl    $0x2,%rax
  400cf6:	48 01 d0             	add    %rdx,%rax
  400cf9:	48 c1 e0 04          	shl    $0x4,%rax
  400cfd:	48 01 f0             	add    %rsi,%rax
  400d00:	48 8b 14 c5 a0 20 60 	mov    0x6020a0(,%rax,8),%rdx
  400d07:	00 
  400d08:	8b 45 f0             	mov    -0x10(%rbp),%eax
  400d0b:	48 98                	cltq   
  400d0d:	48 8b 04 c5 20 ec 73 	mov    0x73ec20(,%rax,8),%rax
  400d14:	00 
  400d15:	48 31 d0             	xor    %rdx,%rax
  400d18:	48 09 c1             	or     %rax,%rcx
  400d1b:	48 89 ca             	mov    %rcx,%rdx
  400d1e:	8b 45 f0             	mov    -0x10(%rbp),%eax
  400d21:	48 98                	cltq   
  400d23:	48 89 14 c5 20 e7 73 	mov    %rdx,0x73e720(,%rax,8)
  400d2a:	00 
  400d2b:	80 7d f6 00          	cmpb   $0x0,-0xa(%rbp)
  400d2f:	0f 84 92 00 00 00    	je     400dc7 <main+0x4c2>
  400d35:	8b 05 3d 0f 34 00    	mov    0x340f3d(%rip),%eax        # 741c78 <cur>
  400d3b:	83 f0 01             	xor    $0x1,%eax
  400d3e:	89 c2                	mov    %eax,%edx
  400d40:	8b 45 f0             	mov    -0x10(%rbp),%eax
  400d43:	48 63 f0             	movslq %eax,%rsi
  400d46:	48 63 c2             	movslq %edx,%rax
  400d49:	8b 55 f8             	mov    -0x8(%rbp),%edx
  400d4c:	48 63 ca             	movslq %edx,%rcx
  400d4f:	48 89 c2             	mov    %rax,%rdx
  400d52:	48 c1 e2 02          	shl    $0x2,%rdx
  400d56:	48 01 c2             	add    %rax,%rdx
  400d59:	48 89 d0             	mov    %rdx,%rax
  400d5c:	48 c1 e0 06          	shl    $0x6,%rax
  400d60:	48 89 c2             	mov    %rax,%rdx
  400d63:	48 89 c8             	mov    %rcx,%rax
  400d66:	48 c1 e0 02          	shl    $0x2,%rax
  400d6a:	48 01 c8             	add    %rcx,%rax
  400d6d:	48 c1 e0 04          	shl    $0x4,%rax
  400d71:	48 01 d0             	add    %rdx,%rax
  400d74:	48 01 f0             	add    %rsi,%rax
  400d77:	48 8b 0c c5 a0 f8 73 	mov    0x73f8a0(,%rax,8),%rcx
  400d7e:	00 
  400d7f:	8b 45 f0             	mov    -0x10(%rbp),%eax
  400d82:	48 63 f0             	movslq %eax,%rsi
  400d85:	8b 45 fc             	mov    -0x4(%rbp),%eax
  400d88:	48 63 d0             	movslq %eax,%rdx
  400d8b:	48 89 d0             	mov    %rdx,%rax
  400d8e:	48 c1 e0 02          	shl    $0x2,%rax
  400d92:	48 01 d0             	add    %rdx,%rax
  400d95:	48 c1 e0 04          	shl    $0x4,%rax
  400d99:	48 01 f0             	add    %rsi,%rax
  400d9c:	48 8b 14 c5 a0 02 6a 	mov    0x6a02a0(,%rax,8),%rdx
  400da3:	00 
  400da4:	8b 45 f0             	mov    -0x10(%rbp),%eax
  400da7:	48 98                	cltq   
  400da9:	48 8b 04 c5 a0 ee 73 	mov    0x73eea0(,%rax,8),%rax
  400db0:	00 
  400db1:	48 31 d0             	xor    %rdx,%rax
  400db4:	48 09 c1             	or     %rax,%rcx
  400db7:	48 89 ca             	mov    %rcx,%rdx
  400dba:	8b 45 f0             	mov    -0x10(%rbp),%eax
  400dbd:	48 98                	cltq   
  400dbf:	48 89 14 c5 a0 e9 73 	mov    %rdx,0x73e9a0(,%rax,8)
  400dc6:	00 
  400dc7:	80 7d f7 00          	cmpb   $0x0,-0x9(%rbp)
  400dcb:	74 23                	je     400df0 <main+0x4eb>
  400dcd:	8b 45 f0             	mov    -0x10(%rbp),%eax
  400dd0:	48 98                	cltq   
  400dd2:	48 8b 14 c5 20 e7 73 	mov    0x73e720(,%rax,8),%rdx
  400dd9:	00 
  400dda:	8b 45 f0             	mov    -0x10(%rbp),%eax
  400ddd:	48 98                	cltq   
  400ddf:	48 8b 04 c5 a0 e4 73 	mov    0x73e4a0(,%rax,8),%rax
  400de6:	00 
  400de7:	48 39 c2             	cmp    %rax,%rdx
  400dea:	74 04                	je     400df0 <main+0x4eb>
  400dec:	c6 45 f5 00          	movb   $0x0,-0xb(%rbp)
  400df0:	80 7d f6 00          	cmpb   $0x0,-0xa(%rbp)
  400df4:	74 26                	je     400e1c <main+0x517>
  400df6:	8b 45 f0             	mov    -0x10(%rbp),%eax
  400df9:	48 98                	cltq   
  400dfb:	48 8b 14 c5 a0 e9 73 	mov    0x73e9a0(,%rax,8),%rdx
  400e02:	00 
  400e03:	8b 45 f0             	mov    -0x10(%rbp),%eax
  400e06:	48 98                	cltq   
  400e08:	48 8b 04 c5 a0 e4 73 	mov    0x73e4a0(,%rax,8),%rax
  400e0f:	00 
  400e10:	48 39 c2             	cmp    %rax,%rdx
  400e13:	74 07                	je     400e1c <main+0x517>
  400e15:	c6 45 f4 00          	movb   $0x0,-0xc(%rbp)
  400e19:	eb 01                	jmp    400e1c <main+0x517>
  400e1b:	90                   	nop
  400e1c:	83 45 f0 01          	addl   $0x1,-0x10(%rbp)
  400e20:	e9 0b fc ff ff       	jmpq   400a30 <main+0x12b>
  400e25:	90                   	nop
  400e26:	80 7d f7 00          	cmpb   $0x0,-0x9(%rbp)
  400e2a:	0f 84 a6 00 00 00    	je     400ed6 <main+0x5d1>
  400e30:	80 7d f5 00          	cmpb   $0x0,-0xb(%rbp)
  400e34:	74 3f                	je     400e75 <main+0x570>
  400e36:	8b 45 fc             	mov    -0x4(%rbp),%eax
  400e39:	83 e8 01             	sub    $0x1,%eax
  400e3c:	48 98                	cltq   
  400e3e:	8b 14 85 a0 0c 74 00 	mov    0x740ca0(,%rax,4),%edx
  400e45:	8b 05 35 0e 34 00    	mov    0x340e35(%rip),%eax        # 741c80 <ans>
  400e4b:	8d 0c 02             	lea    (%rdx,%rax,1),%ecx
  400e4e:	ba 99 2f b8 44       	mov    $0x44b82f99,%edx
  400e53:	89 c8                	mov    %ecx,%eax
  400e55:	f7 ea                	imul   %edx
  400e57:	c1 fa 1c             	sar    $0x1c,%edx
  400e5a:	89 c8                	mov    %ecx,%eax
  400e5c:	c1 f8 1f             	sar    $0x1f,%eax
  400e5f:	29 c2                	sub    %eax,%edx
  400e61:	89 d0                	mov    %edx,%eax
  400e63:	69 c0 07 ca 9a 3b    	imul   $0x3b9aca07,%eax,%eax
  400e69:	29 c1                	sub    %eax,%ecx
  400e6b:	89 c8                	mov    %ecx,%eax
  400e6d:	89 05 0d 0e 34 00    	mov    %eax,0x340e0d(%rip)        # 741c80 <ans>
  400e73:	eb 61                	jmp    400ed6 <main+0x5d1>
  400e75:	8b 15 fd 0d 34 00    	mov    0x340dfd(%rip),%edx        # 741c78 <cur>
  400e7b:	8b 05 f3 0d 34 00    	mov    0x340df3(%rip),%eax        # 741c74 <dt>
  400e81:	83 c0 01             	add    $0x1,%eax
  400e84:	89 05 ea 0d 34 00    	mov    %eax,0x340dea(%rip)        # 741c74 <dt>
  400e8a:	8b 05 e4 0d 34 00    	mov    0x340de4(%rip),%eax        # 741c74 <dt>
  400e90:	48 98                	cltq   
  400e92:	48 63 ca             	movslq %edx,%rcx
  400e95:	48 89 c2             	mov    %rax,%rdx
  400e98:	48 c1 e2 02          	shl    $0x2,%rdx
  400e9c:	48 01 c2             	add    %rax,%rdx
  400e9f:	48 89 d0             	mov    %rdx,%rax
  400ea2:	48 c1 e0 07          	shl    $0x7,%rax
  400ea6:	48 89 c2             	mov    %rax,%rdx
  400ea9:	48 89 c8             	mov    %rcx,%rax
  400eac:	48 c1 e0 02          	shl    $0x2,%rax
  400eb0:	48 01 c8             	add    %rcx,%rax
  400eb3:	48 c1 e0 09          	shl    $0x9,%rax
  400eb7:	48 01 d0             	add    %rdx,%rax
  400eba:	48 05 a0 f8 73 00    	add    $0x73f8a0,%rax
  400ec0:	48 89 c2             	mov    %rax,%rdx
  400ec3:	be 20 e7 73 00       	mov    $0x73e720,%esi
  400ec8:	b8 50 00 00 00       	mov    $0x50,%eax
  400ecd:	48 89 d7             	mov    %rdx,%rdi
  400ed0:	48 89 c1             	mov    %rax,%rcx
  400ed3:	f3 48 a5             	rep movsq %ds:(%rsi),%es:(%rdi)
  400ed6:	80 7d f6 00          	cmpb   $0x0,-0xa(%rbp)
  400eda:	0f 84 a6 00 00 00    	je     400f86 <main+0x681>
  400ee0:	80 7d f4 00          	cmpb   $0x0,-0xc(%rbp)
  400ee4:	74 3f                	je     400f25 <main+0x620>
  400ee6:	8b 45 fc             	mov    -0x4(%rbp),%eax
  400ee9:	83 e8 01             	sub    $0x1,%eax
  400eec:	48 98                	cltq   
  400eee:	8b 14 85 a0 0c 74 00 	mov    0x740ca0(,%rax,4),%edx
  400ef5:	8b 05 85 0d 34 00    	mov    0x340d85(%rip),%eax        # 741c80 <ans>
  400efb:	8d 0c 02             	lea    (%rdx,%rax,1),%ecx
  400efe:	ba 99 2f b8 44       	mov    $0x44b82f99,%edx
  400f03:	89 c8                	mov    %ecx,%eax
  400f05:	f7 ea                	imul   %edx
  400f07:	c1 fa 1c             	sar    $0x1c,%edx
  400f0a:	89 c8                	mov    %ecx,%eax
  400f0c:	c1 f8 1f             	sar    $0x1f,%eax
  400f0f:	29 c2                	sub    %eax,%edx
  400f11:	89 d0                	mov    %edx,%eax
  400f13:	69 c0 07 ca 9a 3b    	imul   $0x3b9aca07,%eax,%eax
  400f19:	29 c1                	sub    %eax,%ecx
  400f1b:	89 c8                	mov    %ecx,%eax
  400f1d:	89 05 5d 0d 34 00    	mov    %eax,0x340d5d(%rip)        # 741c80 <ans>
  400f23:	eb 61                	jmp    400f86 <main+0x681>
  400f25:	8b 15 4d 0d 34 00    	mov    0x340d4d(%rip),%edx        # 741c78 <cur>
  400f2b:	8b 05 43 0d 34 00    	mov    0x340d43(%rip),%eax        # 741c74 <dt>
  400f31:	83 c0 01             	add    $0x1,%eax
  400f34:	89 05 3a 0d 34 00    	mov    %eax,0x340d3a(%rip)        # 741c74 <dt>
  400f3a:	8b 05 34 0d 34 00    	mov    0x340d34(%rip),%eax        # 741c74 <dt>
  400f40:	48 98                	cltq   
  400f42:	48 63 ca             	movslq %edx,%rcx
  400f45:	48 89 c2             	mov    %rax,%rdx
  400f48:	48 c1 e2 02          	shl    $0x2,%rdx
  400f4c:	48 01 c2             	add    %rax,%rdx
  400f4f:	48 89 d0             	mov    %rdx,%rax
  400f52:	48 c1 e0 07          	shl    $0x7,%rax
  400f56:	48 89 c2             	mov    %rax,%rdx
  400f59:	48 89 c8             	mov    %rcx,%rax
  400f5c:	48 c1 e0 02          	shl    $0x2,%rax
  400f60:	48 01 c8             	add    %rcx,%rax
  400f63:	48 c1 e0 09          	shl    $0x9,%rax
  400f67:	48 01 d0             	add    %rdx,%rax
  400f6a:	48 05 a0 f8 73 00    	add    $0x73f8a0,%rax
  400f70:	48 89 c2             	mov    %rax,%rdx
  400f73:	be a0 e9 73 00       	mov    $0x73e9a0,%esi
  400f78:	b8 50 00 00 00       	mov    $0x50,%eax
  400f7d:	48 89 d7             	mov    %rdx,%rdi
  400f80:	48 89 c1             	mov    %rax,%rcx
  400f83:	f3 48 a5             	rep movsq %ds:(%rsi),%es:(%rdi)
  400f86:	8b 05 e8 0c 34 00    	mov    0x340ce8(%rip),%eax        # 741c74 <dt>
  400f8c:	83 f8 02             	cmp    $0x2,%eax
  400f8f:	7e 05                	jle    400f96 <main+0x691>
  400f91:	e8 8a f6 ff ff       	callq  400620 <abort@plt>
  400f96:	83 45 f8 01          	addl   $0x1,-0x8(%rbp)
  400f9a:	e9 6b fa ff ff       	jmpq   400a0a <main+0x105>
  400f9f:	83 6d fc 01          	subl   $0x1,-0x4(%rbp)
  400fa3:	e9 2c fa ff ff       	jmpq   4009d4 <main+0xcf>
  400fa8:	c7 45 ec 01 00 00 00 	movl   $0x1,-0x14(%rbp)
  400faf:	8b 05 bf 0c 34 00    	mov    0x340cbf(%rip),%eax        # 741c74 <dt>
  400fb5:	39 45 ec             	cmp    %eax,-0x14(%rbp)
  400fb8:	0f 8f a6 00 00 00    	jg     401064 <main+0x75f>
  400fbe:	c6 45 eb 01          	movb   $0x1,-0x15(%rbp)
  400fc2:	c7 45 e4 00 00 00 00 	movl   $0x0,-0x1c(%rbp)
  400fc9:	8b 05 b1 10 20 00    	mov    0x2010b1(%rip),%eax        # 602080 <block>
  400fcf:	39 45 e4             	cmp    %eax,-0x1c(%rbp)
  400fd2:	7f 75                	jg     401049 <main+0x744>
  400fd4:	8b 05 9e 0c 34 00    	mov    0x340c9e(%rip),%eax        # 741c78 <cur>
  400fda:	8b 55 e4             	mov    -0x1c(%rbp),%edx
  400fdd:	48 63 f2             	movslq %edx,%rsi
  400fe0:	48 98                	cltq   
  400fe2:	8b 55 ec             	mov    -0x14(%rbp),%edx
  400fe5:	48 63 ca             	movslq %edx,%rcx
  400fe8:	48 89 c2             	mov    %rax,%rdx
  400feb:	48 c1 e2 02          	shl    $0x2,%rdx
  400fef:	48 01 c2             	add    %rax,%rdx
  400ff2:	48 89 d0             	mov    %rdx,%rax
  400ff5:	48 c1 e0 06          	shl    $0x6,%rax
  400ff9:	48 89 c2             	mov    %rax,%rdx
  400ffc:	48 89 c8             	mov    %rcx,%rax
  400fff:	48 c1 e0 02          	shl    $0x2,%rax
  401003:	48 01 c8             	add    %rcx,%rax
  401006:	48 c1 e0 04          	shl    $0x4,%rax
  40100a:	48 01 d0             	add    %rdx,%rax
  40100d:	48 01 f0             	add    %rsi,%rax
  401010:	48 8b 14 c5 a0 f8 73 	mov    0x73f8a0(,%rax,8),%rdx
  401017:	00 
  401018:	8b 45 e4             	mov    -0x1c(%rbp),%eax
  40101b:	48 98                	cltq   
  40101d:	48 8b 04 c5 a0 e4 73 	mov    0x73e4a0(,%rax,8),%rax
  401024:	00 
  401025:	48 31 c2             	xor    %rax,%rdx
  401028:	8b 45 e4             	mov    -0x1c(%rbp),%eax
  40102b:	48 98                	cltq   
  40102d:	48 8b 04 c5 20 f1 73 	mov    0x73f120(,%rax,8),%rax
  401034:	00 
  401035:	48 21 d0             	and    %rdx,%rax
  401038:	48 85 c0             	test   %rax,%rax
  40103b:	74 06                	je     401043 <main+0x73e>
  40103d:	c6 45 eb 00          	movb   $0x0,-0x15(%rbp)
  401041:	eb 06                	jmp    401049 <main+0x744>
  401043:	83 45 e4 01          	addl   $0x1,-0x1c(%rbp)
  401047:	eb 80                	jmp    400fc9 <main+0x6c4>
  401049:	0f b6 55 eb          	movzbl -0x15(%rbp),%edx
  40104d:	8b 05 2d 0c 34 00    	mov    0x340c2d(%rip),%eax        # 741c80 <ans>
  401053:	01 d0                	add    %edx,%eax
  401055:	89 05 25 0c 34 00    	mov    %eax,0x340c25(%rip)        # 741c80 <ans>
  40105b:	83 45 ec 01          	addl   $0x1,-0x14(%rbp)
  40105f:	e9 4b ff ff ff       	jmpq   400faf <main+0x6aa>
  401064:	8b 05 16 0c 34 00    	mov    0x340c16(%rip),%eax        # 741c80 <ans>
  40106a:	89 c6                	mov    %eax,%esi
  40106c:	bf 65 12 40 00       	mov    $0x401265,%edi
  401071:	b8 00 00 00 00       	mov    $0x0,%eax
  401076:	e8 85 f5 ff ff       	callq  400600 <printf@plt>
  40107b:	e9 b0 f8 ff ff       	jmpq   400930 <main+0x2b>
  401080:	b8 00 00 00 00       	mov    $0x0,%eax
  401085:	c9                   	leaveq 
  401086:	c3                   	retq   

0000000000401087 <_Z41__static_initialization_and_destruction_0ii>:
  401087:	55                   	push   %rbp
  401088:	48 89 e5             	mov    %rsp,%rbp
  40108b:	48 83 ec 10          	sub    $0x10,%rsp
  40108f:	89 7d fc             	mov    %edi,-0x4(%rbp)
  401092:	89 75 f8             	mov    %esi,-0x8(%rbp)
  401095:	83 7d fc 01          	cmpl   $0x1,-0x4(%rbp)
  401099:	75 27                	jne    4010c2 <_Z41__static_initialization_and_destruction_0ii+0x3b>
  40109b:	81 7d f8 ff ff 00 00 	cmpl   $0xffff,-0x8(%rbp)
  4010a2:	75 1e                	jne    4010c2 <_Z41__static_initialization_and_destruction_0ii+0x3b>
  4010a4:	bf 84 1c 74 00       	mov    $0x741c84,%edi
  4010a9:	e8 b2 f5 ff ff       	callq  400660 <_ZNSt8ios_base4InitC1Ev@plt>
  4010ae:	ba 48 12 40 00       	mov    $0x401248,%edx
  4010b3:	be 84 1c 74 00       	mov    $0x741c84,%esi
  4010b8:	bf 70 06 40 00       	mov    $0x400670,%edi
  4010bd:	e8 6e f5 ff ff       	callq  400630 <__cxa_atexit@plt>
  4010c2:	90                   	nop
  4010c3:	c9                   	leaveq 
  4010c4:	c3                   	retq   

00000000004010c5 <_GLOBAL__sub_I_block>:
  4010c5:	55                   	push   %rbp
  4010c6:	48 89 e5             	mov    %rsp,%rbp
  4010c9:	be ff ff 00 00       	mov    $0xffff,%esi
  4010ce:	bf 01 00 00 00       	mov    $0x1,%edi
  4010d3:	e8 af ff ff ff       	callq  401087 <_Z41__static_initialization_and_destruction_0ii>
  4010d8:	5d                   	pop    %rbp
  4010d9:	c3                   	retq   

00000000004010da <_ZN6bitset4readEv>:
  4010da:	55                   	push   %rbp
  4010db:	48 89 e5             	mov    %rsp,%rbp
  4010de:	48 83 ec 20          	sub    $0x20,%rsp
  4010e2:	48 89 7d e8          	mov    %rdi,-0x18(%rbp)
  4010e6:	48 8b 45 e8          	mov    -0x18(%rbp),%rax
  4010ea:	ba 80 02 00 00       	mov    $0x280,%edx
  4010ef:	be 00 00 00 00       	mov    $0x0,%esi
  4010f4:	48 89 c7             	mov    %rax,%rdi
  4010f7:	e8 14 f5 ff ff       	callq  400610 <memset@plt>
  4010fc:	e8 4f f5 ff ff       	callq  400650 <getchar@plt>
  401101:	88 45 ff             	mov    %al,-0x1(%rbp)
  401104:	0f be 45 ff          	movsbl -0x1(%rbp),%eax
  401108:	83 e8 30             	sub    $0x30,%eax
  40110b:	83 f8 09             	cmp    $0x9,%eax
  40110e:	76 0a                	jbe    40111a <_ZN6bitset4readEv+0x40>
  401110:	e8 3b f5 ff ff       	callq  400650 <getchar@plt>
  401115:	88 45 ff             	mov    %al,-0x1(%rbp)
  401118:	eb ea                	jmp    401104 <_ZN6bitset4readEv+0x2a>
  40111a:	c7 45 f8 00 00 00 00 	movl   $0x0,-0x8(%rbp)
  401121:	8b 05 61 0f 20 00    	mov    0x200f61(%rip),%eax        # 602088 <m>
  401127:	39 45 f8             	cmp    %eax,-0x8(%rbp)
  40112a:	7d 5a                	jge    401186 <_ZN6bitset4readEv+0xac>
  40112c:	8b 45 f8             	mov    -0x8(%rbp),%eax
  40112f:	8d 50 3f             	lea    0x3f(%rax),%edx
  401132:	85 c0                	test   %eax,%eax
  401134:	0f 48 c2             	cmovs  %edx,%eax
  401137:	c1 f8 06             	sar    $0x6,%eax
  40113a:	89 c6                	mov    %eax,%esi
  40113c:	48 8b 45 e8          	mov    -0x18(%rbp),%rax
  401140:	48 63 d6             	movslq %esi,%rdx
  401143:	48 8b 3c d0          	mov    (%rax,%rdx,8),%rdi
  401147:	0f be 45 ff          	movsbl -0x1(%rbp),%eax
  40114b:	83 e8 30             	sub    $0x30,%eax
  40114e:	4c 63 c0             	movslq %eax,%r8
  401151:	8b 45 f8             	mov    -0x8(%rbp),%eax
  401154:	99                   	cltd   
  401155:	c1 ea 1a             	shr    $0x1a,%edx
  401158:	01 d0                	add    %edx,%eax
  40115a:	83 e0 3f             	and    $0x3f,%eax
  40115d:	29 d0                	sub    %edx,%eax
  40115f:	89 c1                	mov    %eax,%ecx
  401161:	49 d3 e0             	shl    %cl,%r8
  401164:	4c 89 c0             	mov    %r8,%rax
  401167:	48 89 f9             	mov    %rdi,%rcx
  40116a:	48 09 c1             	or     %rax,%rcx
  40116d:	48 8b 45 e8          	mov    -0x18(%rbp),%rax
  401171:	48 63 d6             	movslq %esi,%rdx
  401174:	48 89 0c d0          	mov    %rcx,(%rax,%rdx,8)
  401178:	83 45 f8 01          	addl   $0x1,-0x8(%rbp)
  40117c:	e8 cf f4 ff ff       	callq  400650 <getchar@plt>
  401181:	88 45 ff             	mov    %al,-0x1(%rbp)
  401184:	eb 9b                	jmp    401121 <_ZN6bitset4readEv+0x47>
  401186:	90                   	nop
  401187:	c9                   	leaveq 
  401188:	c3                   	retq   
  401189:	90                   	nop

000000000040118a <_ZN6bitset5clearEv>:
  40118a:	55                   	push   %rbp
  40118b:	48 89 e5             	mov    %rsp,%rbp
  40118e:	48 89 7d e8          	mov    %rdi,-0x18(%rbp)
  401192:	c7 45 fc 00 00 00 00 	movl   $0x0,-0x4(%rbp)
  401199:	8b 05 e1 0e 20 00    	mov    0x200ee1(%rip),%eax        # 602080 <block>
  40119f:	39 45 fc             	cmp    %eax,-0x4(%rbp)
  4011a2:	7f 18                	jg     4011bc <_ZN6bitset5clearEv+0x32>
  4011a4:	48 8b 45 e8          	mov    -0x18(%rbp),%rax
  4011a8:	8b 55 fc             	mov    -0x4(%rbp),%edx
  4011ab:	48 63 d2             	movslq %edx,%rdx
  4011ae:	48 c7 04 d0 00 00 00 	movq   $0x0,(%rax,%rdx,8)
  4011b5:	00 
  4011b6:	83 45 fc 01          	addl   $0x1,-0x4(%rbp)
  4011ba:	eb dd                	jmp    401199 <_ZN6bitset5clearEv+0xf>
  4011bc:	90                   	nop
  4011bd:	5d                   	pop    %rbp
  4011be:	c3                   	retq   
  4011bf:	90                   	nop

00000000004011c0 <__libc_csu_init>:
  4011c0:	41 57                	push   %r15
  4011c2:	41 56                	push   %r14
  4011c4:	49 89 d7             	mov    %rdx,%r15
  4011c7:	41 55                	push   %r13
  4011c9:	41 54                	push   %r12
  4011cb:	4c 8d 25 06 0c 20 00 	lea    0x200c06(%rip),%r12        # 601dd8 <__frame_dummy_init_array_entry>
  4011d2:	55                   	push   %rbp
  4011d3:	48 8d 2d 0e 0c 20 00 	lea    0x200c0e(%rip),%rbp        # 601de8 <__init_array_end>
  4011da:	53                   	push   %rbx
  4011db:	41 89 fd             	mov    %edi,%r13d
  4011de:	49 89 f6             	mov    %rsi,%r14
  4011e1:	4c 29 e5             	sub    %r12,%rbp
  4011e4:	48 83 ec 08          	sub    $0x8,%rsp
  4011e8:	48 c1 fd 03          	sar    $0x3,%rbp
  4011ec:	e8 e7 f3 ff ff       	callq  4005d8 <_init>
  4011f1:	48 85 ed             	test   %rbp,%rbp
  4011f4:	74 20                	je     401216 <__libc_csu_init+0x56>
  4011f6:	31 db                	xor    %ebx,%ebx
  4011f8:	0f 1f 84 00 00 00 00 	nopl   0x0(%rax,%rax,1)
  4011ff:	00 
  401200:	4c 89 fa             	mov    %r15,%rdx
  401203:	4c 89 f6             	mov    %r14,%rsi
  401206:	44 89 ef             	mov    %r13d,%edi
  401209:	41 ff 14 dc          	callq  *(%r12,%rbx,8)
  40120d:	48 83 c3 01          	add    $0x1,%rbx
  401211:	48 39 dd             	cmp    %rbx,%rbp
  401214:	75 ea                	jne    401200 <__libc_csu_init+0x40>
  401216:	48 83 c4 08          	add    $0x8,%rsp
  40121a:	5b                   	pop    %rbx
  40121b:	5d                   	pop    %rbp
  40121c:	41 5c                	pop    %r12
  40121e:	41 5d                	pop    %r13
  401220:	41 5e                	pop    %r14
  401222:	41 5f                	pop    %r15
  401224:	c3                   	retq   
  401225:	90                   	nop
  401226:	66 2e 0f 1f 84 00 00 	nopw   %cs:0x0(%rax,%rax,1)
  40122d:	00 00 00 

0000000000401230 <__libc_csu_fini>:
  401230:	f3 c3                	repz retq 

Disassembly of section .fini:

0000000000401234 <_fini>:
  401234:	48 83 ec 08          	sub    $0x8,%rsp
  401238:	48 83 c4 08          	add    $0x8,%rsp
  40123c:	c3                   	retq   
